

Microchip Technology PIC18 PRO Macro Assembler V1.12 build 49521 
                                                                                               Thu Oct 08 16:39:34 2015

HI-TECH Software Omniscient Code Generator (PRO mode) build 49521
     1                           	processor	18F45K20
     2                           	fnconf	rparam,??,?,0
     3                           	opt	pw 120
     4                           	opt	pm
     5                           	psect	mediumconst,global,reloc=2,class=MEDIUMCONST,delta=1
     6                           	psect	cinit,global,reloc=2,class=CODE,delta=1
     7                           	psect	bssCOMRAM,global,class=COMRAM,space=1,delta=1
     8                           	psect	bssBANK0,global,class=BANK0,space=1,delta=1
     9                           	psect	bssBANK1,global,class=BANK1,space=1,delta=1
    10                           	psect	bssBANK2,global,class=BANK2,space=1,delta=1
    11                           	psect	bssBANK3,global,class=BANK3,space=1,delta=1
    12                           	psect	bssBANK4,global,class=BANK4,space=1,delta=1
    13                           	psect	cstackCOMRAM,global,class=COMRAM,space=1,delta=1
    14                           	psect	text0,global,reloc=2,class=CODE,delta=1
    15                           	psect	text1,global,reloc=2,class=CODE,delta=1
    16                           	psect	text2,global,reloc=2,class=CODE,delta=1
    17                           	psect	text3,global,reloc=2,class=CODE,delta=1
    18                           	psect	text4,global,reloc=2,class=CODE,delta=1
    19                           	psect	text5,global,reloc=2,class=CODE,delta=1
    20                           	psect	text6,global,reloc=2,class=CODE,delta=1
    21                           	psect	text7,global,reloc=2,class=CODE,delta=1
    22                           	psect	text8,global,reloc=2,class=CODE,delta=1
    23                           	psect	text9,global,reloc=2,class=CODE,delta=1
    24                           	psect	text10,global,reloc=2,class=CODE,delta=1
    25                           	psect	text11,global,reloc=2,class=CODE,delta=1
    26                           	psect	text12,global,reloc=2,class=CODE,delta=1
    27                           	psect	text13,global,reloc=2,class=CODE,delta=1
    28                           	psect	intcode,global,reloc=2,class=CODE,delta=1
    29                           	psect	text15,global,reloc=2,class=CODE,delta=1
    30                           	psect	intsave_regs,global,class=BIGRAM,space=1,delta=1
    31                           	psect	rparam,global,class=COMRAM,space=1,delta=1
    32  0000                     
    33                           	psect	mediumconst
    34  007D86                     __pmediumconst:
    35                           	opt stack 0
    36  007D86                     _syx_param_list:
    37                           	opt stack 0
    38  007D86  73                 	db	115
    39  007D87  69                 	db	105
    40  007D88  67                 	db	103
    41  007D89  6E                 	db	110
    42  007D8A  61                 	db	97
    43  007D8B  6C                 	db	108
    44  007D8C  00                 	db	0
    45  007D8D  00                 	db	0
    46  007D8E  00                 	db	0
    47  007D8F  00                 	db	0
    48  007D90  00                 	db	0
    49  007D91  00                 	db	0
    50  007D92  00                 	db	0
    51  007D93  00                 	db	0
    52  007D94  00                 	db	0
    53  007D95  00                 	db	0
    54  007D96  00                 	db	0
    55  007D97  00                 	db	0
    56  007D98  00                 	db	0
    57  007D99  00                 	db	0
    58  007D9A  00                 	db	0
    59  007D9B  03                 	db	3
    60  007D9C  69                 	db	105
    61  007D9D  6D                 	db	109
    62  007D9E  70                 	db	112
    63  007D9F  00                 	db	0
    64  007DA0  00                 	db	0
    65  007DA1  00                 	db	0
    66  007DA2  00                 	db	0
    67  007DA3  00                 	db	0
    68  007DA4  00                 	db	0
    69  007DA5  00                 	db	0
    70  007DA6  00                 	db	0
    71  007DA7  00                 	db	0
    72  007DA8  00                 	db	0
    73  007DA9  00                 	db	0
    74  007DAA  00                 	db	0
    75  007DAB  00                 	db	0
    76  007DAC  00                 	db	0
    77  007DAD  00                 	db	0
    78  007DAE  00                 	db	0
    79  007DAF  00                 	db	0
    80  007DB0  01                 	db	1
    81  007DB1  03                 	db	3
    82  007DB2  70                 	db	112
    83  007DB3  77                 	db	119
    84  007DB4  72                 	db	114
    85  007DB5  00                 	db	0
    86  007DB6  00                 	db	0
    87  007DB7  00                 	db	0
    88  007DB8  00                 	db	0
    89  007DB9  00                 	db	0
    90  007DBA  00                 	db	0
    91  007DBB  00                 	db	0
    92  007DBC  00                 	db	0
    93  007DBD  00                 	db	0
    94  007DBE  00                 	db	0
    95  007DBF  00                 	db	0
    96  007DC0  00                 	db	0
    97  007DC1  00                 	db	0
    98  007DC2  00                 	db	0
    99  007DC3  00                 	db	0
   100  007DC4  00                 	db	0
   101  007DC5  00                 	db	0
   102  007DC6  02                 	db	2
   103  007DC7  03                 	db	3
   104  007DC8  70                 	db	112
   105  007DC9  6F                 	db	111
   106  007DCA  74                 	db	116
   107  007DCB  00                 	db	0
   108  007DCC  00                 	db	0
   109  007DCD  00                 	db	0
   110  007DCE  00                 	db	0
   111  007DCF  00                 	db	0
   112  007DD0  00                 	db	0
   113  007DD1  00                 	db	0
   114  007DD2  00                 	db	0
   115  007DD3  00                 	db	0
   116  007DD4  00                 	db	0
   117  007DD5  00                 	db	0
   118  007DD6  00                 	db	0
   119  007DD7  00                 	db	0
   120  007DD8  00                 	db	0
   121  007DD9  00                 	db	0
   122  007DDA  00                 	db	0
   123  007DDB  00                 	db	0
   124  007DDC  03                 	db	3
   125  007DDD  03                 	db	3
   126  007DDE  76                 	db	118
   127  007DDF  65                 	db	101
   128  007DE0  72                 	db	114
   129  007DE1  00                 	db	0
   130  007DE2  00                 	db	0
   131  007DE3  00                 	db	0
   132  007DE4  00                 	db	0
   133  007DE5  00                 	db	0
   134  007DE6  00                 	db	0
   135  007DE7  00                 	db	0
   136  007DE8  00                 	db	0
   137  007DE9  00                 	db	0
   138  007DEA  00                 	db	0
   139  007DEB  00                 	db	0
   140  007DEC  00                 	db	0
   141  007DED  00                 	db	0
   142  007DEE  00                 	db	0
   143  007DEF  00                 	db	0
   144  007DF0  00                 	db	0
   145  007DF1  00                 	db	0
   146  007DF2  04                 	db	4
   147  007DF3  03                 	db	3
   148  007DF4  73                 	db	115
   149  007DF5  74                 	db	116
   150  007DF6  61                 	db	97
   151  007DF7  74                 	db	116
   152  007DF8  75                 	db	117
   153  007DF9  73                 	db	115
   154  007DFA  00                 	db	0
   155  007DFB  00                 	db	0
   156  007DFC  00                 	db	0
   157  007DFD  00                 	db	0
   158  007DFE  00                 	db	0
   159  007DFF  00                 	db	0
   160  007E00  00                 	db	0
   161  007E01  00                 	db	0
   162  007E02  00                 	db	0
   163  007E03  00                 	db	0
   164  007E04  00                 	db	0
   165  007E05  00                 	db	0
   166  007E06  00                 	db	0
   167  007E07  00                 	db	0
   168  007E08  05                 	db	5
   169  007E09  03                 	db	3
   170  007E0A  61                 	db	97
   171  007E0B  63                 	db	99
   172  007E0C  63                 	db	99
   173  007E0D  00                 	db	0
   174  007E0E  00                 	db	0
   175  007E0F  00                 	db	0
   176  007E10  00                 	db	0
   177  007E11  00                 	db	0
   178  007E12  00                 	db	0
   179  007E13  00                 	db	0
   180  007E14  00                 	db	0
   181  007E15  00                 	db	0
   182  007E16  00                 	db	0
   183  007E17  00                 	db	0
   184  007E18  00                 	db	0
   185  007E19  00                 	db	0
   186  007E1A  00                 	db	0
   187  007E1B  00                 	db	0
   188  007E1C  00                 	db	0
   189  007E1D  00                 	db	0
   190  007E1E  07                 	db	7
   191  007E1F  03                 	db	3
   192  007E20  61                 	db	97
   193  007E21  64                 	db	100
   194  007E22  72                 	db	114
   195  007E23  00                 	db	0
   196  007E24  00                 	db	0
   197  007E25  00                 	db	0
   198  007E26  00                 	db	0
   199  007E27  00                 	db	0
   200  007E28  00                 	db	0
   201  007E29  00                 	db	0
   202  007E2A  00                 	db	0
   203  007E2B  00                 	db	0
   204  007E2C  00                 	db	0
   205  007E2D  00                 	db	0
   206  007E2E  00                 	db	0
   207  007E2F  00                 	db	0
   208  007E30  00                 	db	0
   209  007E31  00                 	db	0
   210  007E32  00                 	db	0
   211  007E33  00                 	db	0
   212  007E34  08                 	db	8
   213  007E35  03                 	db	3
   214  007E36  65                 	db	101
   215  007E37  72                 	db	114
   216  007E38  72                 	db	114
   217  007E39  6F                 	db	111
   218  007E3A  72                 	db	114
   219  007E3B  00                 	db	0
   220  007E3C  00                 	db	0
   221  007E3D  00                 	db	0
   222  007E3E  00                 	db	0
   223  007E3F  00                 	db	0
   224  007E40  00                 	db	0
   225  007E41  00                 	db	0
   226  007E42  00                 	db	0
   227  007E43  00                 	db	0
   228  007E44  00                 	db	0
   229  007E45  00                 	db	0
   230  007E46  00                 	db	0
   231  007E47  00                 	db	0
   232  007E48  00                 	db	0
   233  007E49  00                 	db	0
   234  007E4A  06                 	db	6
   235  007E4B  03                 	db	3
   236  007E4C  64                 	db	100
   237  007E4D  65                 	db	101
   238  007E4E  66                 	db	102
   239  007E4F  61                 	db	97
   240  007E50  75                 	db	117
   241  007E51  6C                 	db	108
   242  007E52  74                 	db	116
   243  007E53  73                 	db	115
   244  007E54  00                 	db	0
   245  007E55  00                 	db	0
   246  007E56  00                 	db	0
   247  007E57  00                 	db	0
   248  007E58  00                 	db	0
   249  007E59  00                 	db	0
   250  007E5A  00                 	db	0
   251  007E5B  00                 	db	0
   252  007E5C  00                 	db	0
   253  007E5D  00                 	db	0
   254  007E5E  00                 	db	0
   255  007E5F  00                 	db	0
   256  007E60  09                 	db	9
   257  007E61  03                 	db	3
   258  007E62  6D                 	db	109
   259  007E63  6F                 	db	111
   260  007E64  64                 	db	100
   261  007E65  00                 	db	0
   262  007E66  00                 	db	0
   263  007E67  00                 	db	0
   264  007E68  00                 	db	0
   265  007E69  00                 	db	0
   266  007E6A  00                 	db	0
   267  007E6B  00                 	db	0
   268  007E6C  00                 	db	0
   269  007E6D  00                 	db	0
   270  007E6E  00                 	db	0
   271  007E6F  00                 	db	0
   272  007E70  00                 	db	0
   273  007E71  00                 	db	0
   274  007E72  00                 	db	0
   275  007E73  00                 	db	0
   276  007E74  00                 	db	0
   277  007E75  00                 	db	0
   278  007E76  0A                 	db	10
   279  007E77  01                 	db	1
   280  007E78  70                 	db	112
   281  007E79  72                 	db	114
   282  007E7A  6F                 	db	111
   283  007E7B  66                 	db	102
   284  007E7C  69                 	db	105
   285  007E7D  6C                 	db	108
   286  007E7E  65                 	db	101
   287  007E7F  00                 	db	0
   288  007E80  00                 	db	0
   289  007E81  00                 	db	0
   290  007E82  00                 	db	0
   291  007E83  00                 	db	0
   292  007E84  00                 	db	0
   293  007E85  00                 	db	0
   294  007E86  00                 	db	0
   295  007E87  00                 	db	0
   296  007E88  00                 	db	0
   297  007E89  00                 	db	0
   298  007E8A  00                 	db	0
   299  007E8B  00                 	db	0
   300  007E8C  0B                 	db	11
   301  007E8D  03                 	db	3
   302  007E8E  70                 	db	112
   303  007E8F  77                 	db	119
   304  007E90  72                 	db	114
   305  007E91  74                 	db	116
   306  007E92  72                 	db	114
   307  007E93  69                 	db	105
   308  007E94  67                 	db	103
   309  007E95  00                 	db	0
   310  007E96  00                 	db	0
   311  007E97  00                 	db	0
   312  007E98  00                 	db	0
   313  007E99  00                 	db	0
   314  007E9A  00                 	db	0
   315  007E9B  00                 	db	0
   316  007E9C  00                 	db	0
   317  007E9D  00                 	db	0
   318  007E9E  00                 	db	0
   319  007E9F  00                 	db	0
   320  007EA0  00                 	db	0
   321  007EA1  00                 	db	0
   322  007EA2  0C                 	db	12
   323  007EA3  03                 	db	3
   324  007EA4  61                 	db	97
   325  007EA5  63                 	db	99
   326  007EA6  63                 	db	99
   327  007EA7  74                 	db	116
   328  007EA8  72                 	db	114
   329  007EA9  69                 	db	105
   330  007EAA  67                 	db	103
   331  007EAB  00                 	db	0
   332  007EAC  00                 	db	0
   333  007EAD  00                 	db	0
   334  007EAE  00                 	db	0
   335  007EAF  00                 	db	0
   336  007EB0  00                 	db	0
   337  007EB1  00                 	db	0
   338  007EB2  00                 	db	0
   339  007EB3  00                 	db	0
   340  007EB4  00                 	db	0
   341  007EB5  00                 	db	0
   342  007EB6  00                 	db	0
   343  007EB7  00                 	db	0
   344  007EB8  0D                 	db	13
   345  007EB9  03                 	db	3
   346  007EBA  74                 	db	116
   347  007EBB  72                 	db	114
   348  007EBC  69                 	db	105
   349  007EBD  67                 	db	103
   350  007EBE  6C                 	db	108
   351  007EBF  65                 	db	101
   352  007EC0  76                 	db	118
   353  007EC1  00                 	db	0
   354  007EC2  00                 	db	0
   355  007EC3  00                 	db	0
   356  007EC4  00                 	db	0
   357  007EC5  00                 	db	0
   358  007EC6  00                 	db	0
   359  007EC7  00                 	db	0
   360  007EC8  00                 	db	0
   361  007EC9  00                 	db	0
   362  007ECA  00                 	db	0
   363  007ECB  00                 	db	0
   364  007ECC  00                 	db	0
   365  007ECD  00                 	db	0
   366  007ECE  0E                 	db	14
   367  007ECF  03                 	db	3
   368  007ED0  74                 	db	116
   369  007ED1  72                 	db	114
   370  007ED2  69                 	db	105
   371  007ED3  67                 	db	103
   372  007ED4  73                 	db	115
   373  007ED5  75                 	db	117
   374  007ED6  6D                 	db	109
   375  007ED7  00                 	db	0
   376  007ED8  00                 	db	0
   377  007ED9  00                 	db	0
   378  007EDA  00                 	db	0
   379  007EDB  00                 	db	0
   380  007EDC  00                 	db	0
   381  007EDD  00                 	db	0
   382  007EDE  00                 	db	0
   383  007EDF  00                 	db	0
   384  007EE0  00                 	db	0
   385  007EE1  00                 	db	0
   386  007EE2  00                 	db	0
   387  007EE3  00                 	db	0
   388  007EE4  0F                 	db	15
   389  007EE5  03                 	db	3
   390  007EE6  74                 	db	116
   391  007EE7  72                 	db	114
   392  007EE8  69                 	db	105
   393  007EE9  67                 	db	103
   394  007EEA  63                 	db	99
   395  007EEB  6E                 	db	110
   396  007EEC  74                 	db	116
   397  007EED  00                 	db	0
   398  007EEE  00                 	db	0
   399  007EEF  00                 	db	0
   400  007EF0  00                 	db	0
   401  007EF1  00                 	db	0
   402  007EF2  00                 	db	0
   403  007EF3  00                 	db	0
   404  007EF4  00                 	db	0
   405  007EF5  00                 	db	0
   406  007EF6  00                 	db	0
   407  007EF7  00                 	db	0
   408  007EF8  00                 	db	0
   409  007EF9  00                 	db	0
   410  007EFA  10                 	db	16
   411  007EFB  03                 	db	3
   412  007EFC  77                 	db	119
   413  007EFD  61                 	db	97
   414  007EFE  76                 	db	118
   415  007EFF  74                 	db	116
   416  007F00  6F                 	db	111
   417  007F01  6C                 	db	108
   418  007F02  65                 	db	101
   419  007F03  00                 	db	0
   420  007F04  00                 	db	0
   421  007F05  00                 	db	0
   422  007F06  00                 	db	0
   423  007F07  00                 	db	0
   424  007F08  00                 	db	0
   425  007F09  00                 	db	0
   426  007F0A  00                 	db	0
   427  007F0B  00                 	db	0
   428  007F0C  00                 	db	0
   429  007F0D  00                 	db	0
   430  007F0E  00                 	db	0
   431  007F0F  00                 	db	0
   432  007F10  11                 	db	17
   433  007F11  03                 	db	3
   434  007F12  77                 	db	119
   435  007F13  61                 	db	97
   436  007F14  76                 	db	118
   437  007F15  74                 	db	116
   438  007F16  72                 	db	114
   439  007F17  69                 	db	105
   440  007F18  67                 	db	103
   441  007F19  00                 	db	0
   442  007F1A  00                 	db	0
   443  007F1B  00                 	db	0
   444  007F1C  00                 	db	0
   445  007F1D  00                 	db	0
   446  007F1E  00                 	db	0
   447  007F1F  00                 	db	0
   448  007F20  00                 	db	0
   449  007F21  00                 	db	0
   450  007F22  00                 	db	0
   451  007F23  00                 	db	0
   452  007F24  00                 	db	0
   453  007F25  00                 	db	0
   454  007F26  12                 	db	18
   455  007F27  03                 	db	3
   456  007F28  77                 	db	119
   457  007F29  61                 	db	97
   458  007F2A  76                 	db	118
   459  007F2B  6C                 	db	108
   460  007F2C  63                 	db	99
   461  007F2D  6E                 	db	110
   462  007F2E  74                 	db	116
   463  007F2F  00                 	db	0
   464  007F30  00                 	db	0
   465  007F31  00                 	db	0
   466  007F32  00                 	db	0
   467  007F33  00                 	db	0
   468  007F34  00                 	db	0
   469  007F35  00                 	db	0
   470  007F36  00                 	db	0
   471  007F37  00                 	db	0
   472  007F38  00                 	db	0
   473  007F39  00                 	db	0
   474  007F3A  00                 	db	0
   475  007F3B  00                 	db	0
   476  007F3C  13                 	db	19
   477  007F3D  03                 	db	3
   478  007F3E  77                 	db	119
   479  007F3F  61                 	db	97
   480  007F40  76                 	db	118
   481  007F41  72                 	db	114
   482  007F42  63                 	db	99
   483  007F43  6E                 	db	110
   484  007F44  74                 	db	116
   485  007F45  00                 	db	0
   486  007F46  00                 	db	0
   487  007F47  00                 	db	0
   488  007F48  00                 	db	0
   489  007F49  00                 	db	0
   490  007F4A  00                 	db	0
   491  007F4B  00                 	db	0
   492  007F4C  00                 	db	0
   493  007F4D  00                 	db	0
   494  007F4E  00                 	db	0
   495  007F4F  00                 	db	0
   496  007F50  00                 	db	0
   497  007F51  00                 	db	0
   498  007F52  14                 	db	20
   499  007F53  03                 	db	3
   500  007F54  69                 	db	105
   501  007F55  64                 	db	100
   502  007F56  69                 	db	105
   503  007F57  64                 	db	100
   504  007F58  00                 	db	0
   505  007F59  00                 	db	0
   506  007F5A  00                 	db	0
   507  007F5B  00                 	db	0
   508  007F5C  00                 	db	0
   509  007F5D  00                 	db	0
   510  007F5E  00                 	db	0
   511  007F5F  00                 	db	0
   512  007F60  00                 	db	0
   513  007F61  00                 	db	0
   514  007F62  00                 	db	0
   515  007F63  00                 	db	0
   516  007F64  00                 	db	0
   517  007F65  00                 	db	0
   518  007F66  00                 	db	0
   519  007F67  00                 	db	0
   520  007F68  15                 	db	21
   521  007F69  03                 	db	3
   522  007F6A  70                 	db	112
   523  007F6B  73                 	db	115
   524  007F6C  77                 	db	119
   525  007F6D  70                 	db	112
   526  007F6E  73                 	db	115
   527  007F6F  77                 	db	119
   528  007F70  00                 	db	0
   529  007F71  00                 	db	0
   530  007F72  00                 	db	0
   531  007F73  00                 	db	0
   532  007F74  00                 	db	0
   533  007F75  00                 	db	0
   534  007F76  00                 	db	0
   535  007F77  00                 	db	0
   536  007F78  00                 	db	0
   537  007F79  00                 	db	0
   538  007F7A  00                 	db	0
   539  007F7B  00                 	db	0
   540  007F7C  00                 	db	0
   541  007F7D  00                 	db	0
   542  007F7E  16                 	db	22
   543  007F7F  03                 	db	3
   544  007F80  1D                 	db	29
   545  007F81  1D                 	db	29
   546  007F82  00                 	db	0
   547  007F83  00                 	db	0
   548  007F84  00                 	db	0
   549  007F85  00                 	db	0
   550  007F86  00                 	db	0
   551  007F87  00                 	db	0
   552  007F88  00                 	db	0
   553  007F89  00                 	db	0
   554  007F8A  00                 	db	0
   555  007F8B  00                 	db	0
   556  007F8C  00                 	db	0
   557  007F8D  00                 	db	0
   558  007F8E  00                 	db	0
   559  007F8F  00                 	db	0
   560  007F90  00                 	db	0
   561  007F91  00                 	db	0
   562  007F92  00                 	db	0
   563  007F93  00                 	db	0
   564  007F94  FF                 	db	255
   565  007F95  00                 	db	0
   566  007F96                     __end_of_syx_param_list:
   567                           	opt stack 0
   568  007F96                     _syx_cmd_list:
   569                           	opt stack 0
   570  007F96  73                 	db	115
   571  007F97  65                 	db	101
   572  007F98  74                 	db	116
   573  007F99  00                 	db	0
   574  007F9A  00                 	db	0
   575  007F9B  00                 	db	0
   576  007F9C  00                 	db	0
   577  007F9D  00                 	db	0
   578  007F9E  00                 	db	0
   579  007F9F  00                 	db	0
   580  007FA0  00                 	db	0
   581  007FA1  00                 	db	0
   582  007FA2  00                 	db	0
   583  007FA3  00                 	db	0
   584  007FA4  00                 	db	0
   585  007FA5  00                 	db	0
   586  007FA6  00                 	db	0
   587  007FA7  00                 	db	0
   588  007FA8  00                 	db	0
   589  007FA9  00                 	db	0
   590  007FAA  00                 	db	0
   591  007FAB  67                 	db	103
   592  007FAC  65                 	db	101
   593  007FAD  74                 	db	116
   594  007FAE  00                 	db	0
   595  007FAF  00                 	db	0
   596  007FB0  00                 	db	0
   597  007FB1  00                 	db	0
   598  007FB2  00                 	db	0
   599  007FB3  00                 	db	0
   600  007FB4  00                 	db	0
   601  007FB5  00                 	db	0
   602  007FB6  00                 	db	0
   603  007FB7  00                 	db	0
   604  007FB8  00                 	db	0
   605  007FB9  00                 	db	0
   606  007FBA  00                 	db	0
   607  007FBB  00                 	db	0
   608  007FBC  00                 	db	0
   609  007FBD  00                 	db	0
   610  007FBE  00                 	db	0
   611  007FBF  01                 	db	1
   612  007FC0  69                 	db	105
   613  007FC1  6E                 	db	110
   614  007FC2  69                 	db	105
   615  007FC3  74                 	db	116
   616  007FC4  00                 	db	0
   617  007FC5  00                 	db	0
   618  007FC6  00                 	db	0
   619  007FC7  00                 	db	0
   620  007FC8  00                 	db	0
   621  007FC9  00                 	db	0
   622  007FCA  00                 	db	0
   623  007FCB  00                 	db	0
   624  007FCC  00                 	db	0
   625  007FCD  00                 	db	0
   626  007FCE  00                 	db	0
   627  007FCF  00                 	db	0
   628  007FD0  00                 	db	0
   629  007FD1  00                 	db	0
   630  007FD2  00                 	db	0
   631  007FD3  00                 	db	0
   632  007FD4  02                 	db	2
   633  007FD5  73                 	db	115
   634  007FD6  65                 	db	101
   635  007FD7  6C                 	db	108
   636  007FD8  66                 	db	102
   637  007FD9  74                 	db	116
   638  007FDA  65                 	db	101
   639  007FDB  73                 	db	115
   640  007FDC  74                 	db	116
   641  007FDD  00                 	db	0
   642  007FDE  00                 	db	0
   643  007FDF  00                 	db	0
   644  007FE0  00                 	db	0
   645  007FE1  00                 	db	0
   646  007FE2  00                 	db	0
   647  007FE3  00                 	db	0
   648  007FE4  00                 	db	0
   649  007FE5  00                 	db	0
   650  007FE6  00                 	db	0
   651  007FE7  00                 	db	0
   652  007FE8  00                 	db	0
   653  007FE9  03                 	db	3
   654  007FEA  1D                 	db	29
   655  007FEB  1D                 	db	29
   656  007FEC  00                 	db	0
   657  007FED  00                 	db	0
   658  007FEE  00                 	db	0
   659  007FEF  00                 	db	0
   660  007FF0  00                 	db	0
   661  007FF1  00                 	db	0
   662  007FF2  00                 	db	0
   663  007FF3  00                 	db	0
   664  007FF4  00                 	db	0
   665  007FF5  00                 	db	0
   666  007FF6  00                 	db	0
   667  007FF7  00                 	db	0
   668  007FF8  00                 	db	0
   669  007FF9  00                 	db	0
   670  007FFA  00                 	db	0
   671  007FFB  00                 	db	0
   672  007FFC  00                 	db	0
   673  007FFD  00                 	db	0
   674  007FFE  00                 	db	0
   675  007FFF                     __end_of_syx_cmd_list:
   676                           	opt stack 0
   677  0000                     _ADRES	set	4035
   678  0000                     _TMR0	set	4054
   679  0000                     _ADCON0	set	4034
   680  0000                     _ADCON0bits	set	4034
   681  0000                     _ADCON1	set	4033
   682  0000                     _ADCON2	set	4032
   683  0000                     _ANSEL	set	3966
   684  0000                     _ANSELH	set	3967
   685  0000                     _BAUDCON	set	4024
   686  0000                     _BAUDCTL	set	4024
   687  0000                     _INTCONbits	set	4082
   688  0000                     _LATC	set	3979
   689  0000                     _LATD	set	3980
   690  0000                     _LATDbits	set	3980
   691  0000                     _OSCCON	set	4051
   692  0000                     _RCREG	set	4014
   693  0000                     _RCSTA	set	4011
   694  0000                     _RCSTAbits	set	4011
   695  0000                     _SPBRG	set	4015
   696  0000                     _TRISA	set	3986
   697  0000                     _TRISB	set	3987
   698  0000                     _TRISC	set	3988
   699  0000                     _TRISD	set	3989
   700  0000                     _TXREG	set	4013
   701  0000                     _TXSTA	set	4012
   702  0000                     _ADIF	set	31990
   703  0000                     _CREN	set	32092
   704  0000                     _GODONE	set	32273
   705  0000                     _RCIF	set	31989
   706  0000                     _TMR0IF	set	32658
   707  0000                     _TXIF	set	31988
   708                           
   709                           ; #config settings
   710  007FFF  00                 	db	0	; dummy byte at the end
   711  0000                     
   712                           	psect	cinit
   713  0000E8                     __pcinit:
   714                           	opt stack 0
   715  0000E8                     start_initialization:
   716                           	opt stack 0
   717  0000E8                     __initialization:
   718                           	opt stack 0
   719                           
   720                           ; Clear objects allocated to BANK4 (149 bytes)
   721  0000E8  EE04  F000         	lfsr	0,__pbssBANK4
   722  0000EC  0E95               	movlw	149
   723  0000EE                     clear_0:
   724  0000EE  6AEE               	clrf	postinc0,c
   725  0000F0  06E8               	decf	wreg,f,c
   726  0000F2  E1FD               	bnz	clear_0
   727                           
   728                           ; Clear objects allocated to BANK3 (207 bytes)
   729  0000F4  EE03  F000         	lfsr	0,__pbssBANK3
   730  0000F8  0ECF               	movlw	207
   731  0000FA                     clear_1:
   732  0000FA  6AEE               	clrf	postinc0,c
   733  0000FC  06E8               	decf	wreg,f,c
   734  0000FE  E1FD               	bnz	clear_1
   735                           
   736                           ; Clear objects allocated to BANK2 (127 bytes)
   737  000100  EE02  F000         	lfsr	0,__pbssBANK2
   738  000104  0E7F               	movlw	127
   739  000106                     clear_2:
   740  000106  6AEE               	clrf	postinc0,c
   741  000108  06E8               	decf	wreg,f,c
   742  00010A  E1FD               	bnz	clear_2
   743                           
   744                           ; Clear objects allocated to BANK1 (254 bytes)
   745  00010C  EE01  F000         	lfsr	0,__pbssBANK1
   746  000110  0EFE               	movlw	254
   747  000112                     clear_3:
   748  000112  6AEE               	clrf	postinc0,c
   749  000114  06E8               	decf	wreg,f,c
   750  000116  E1FD               	bnz	clear_3
   751                           
   752                           ; Clear objects allocated to BANK0 (136 bytes)
   753  000118  EE00  F060         	lfsr	0,__pbssBANK0
   754  00011C  0E88               	movlw	136
   755  00011E                     clear_4:
   756  00011E  6AEE               	clrf	postinc0,c
   757  000120  06E8               	decf	wreg,f,c
   758  000122  E1FD               	bnz	clear_4
   759                           
   760                           ; Clear objects allocated to COMRAM (71 bytes)
   761  000124  EE00  F001         	lfsr	0,__pbssCOMRAM
   762  000128  0E47               	movlw	71
   763  00012A                     clear_5:
   764  00012A  6AEE               	clrf	postinc0,c
   765  00012C  06E8               	decf	wreg,f,c
   766  00012E  E1FD               	bnz	clear_5
   767  000130                     end_of_initialization:
   768                           	opt stack 0
   769  000130                     __end_of__initialization:
   770                           	opt stack 0
   771  000130  0E00               	movlw	low (__Lmediumconst shr (0+16))
   772  000132  6EF8               	movwf	tblptru,c
   773  000134  0100               	movlb	0
   774  000136  EFF9  F000         	goto	_main	;jump to C main() function
   775                           tblptru	equ	0xFF8
   776                           postinc0	equ	0xFEE
   777                           wreg	equ	0xFE8
   778                           
   779                           	psect	bssCOMRAM
   780  000001                     __pbssCOMRAM:
   781                           	opt stack 0
   782  000001                     _event_list:
   783                           	opt stack 0
   784  000001                     	ds	56
   785  000039                     _g_STATUS:
   786                           	opt stack 0
   787  000039                     	ds	2
   788  00003B                     _g_analog0:
   789                           	opt stack 0
   790  00003B                     	ds	2
   791  00003D                     _g_analog1:
   792                           	opt stack 0
   793  00003D                     	ds	2
   794  00003F                     _g_analog2:
   795                           	opt stack 0
   796  00003F                     	ds	2
   797  000041                     _this_delay_timer_ms:
   798                           	opt stack 0
   799  000041                     	ds	2
   800  000043                     _bitcount:
   801                           	opt stack 0
   802  000043                     	ds	1
   803  000044                     _eventPool:
   804                           	opt stack 0
   805  000044                     	ds	1
   806  000045                     _i2c_buff:
   807                           	opt stack 0
   808  000045                     	ds	1
   809  000046                     _this_alarm:
   810                           	opt stack 0
   811  000046                     	ds	1
   812  000047                     _this_warning:
   813                           	opt stack 0
   814  000047                     	ds	1
   815                           tblptru	equ	0xFF8
   816                           postinc0	equ	0xFEE
   817                           wreg	equ	0xFE8
   818                           
   819                           	psect	bssBANK0
   820  000060                     __pbssBANK0:
   821                           	opt stack 0
   822  000060                     	ds	80
   823  0000B0                     _cla_detector:
   824                           	opt stack 0
   825  0000B0                     	ds	31
   826  0000CF                     _g_CONFIG:
   827                           	opt stack 0
   828  0000CF                     	ds	25
   829                           tblptru	equ	0xFF8
   830                           postinc0	equ	0xFEE
   831                           wreg	equ	0xFE8
   832                           
   833                           	psect	bssBANK1
   834  000100                     __pbssBANK1:
   835                           	opt stack 0
   836  000100                     _parameter_text:
   837                           	opt stack 0
   838  000100                     	ds	127
   839  00017F                     _parameter_value:
   840                           	opt stack 0
   841  00017F                     	ds	127
   842                           tblptru	equ	0xFF8
   843                           postinc0	equ	0xFEE
   844                           wreg	equ	0xFE8
   845                           
   846                           	psect	bssBANK2
   847  000200                     __pbssBANK2:
   848                           	opt stack 0
   849  000200                     _this_buf:
   850                           	opt stack 0
   851  000200                     	ds	127
   852                           tblptru	equ	0xFF8
   853                           postinc0	equ	0xFEE
   854                           wreg	equ	0xFE8
   855                           
   856                           	psect	bssBANK3
   857  000300                     __pbssBANK3:
   858                           	opt stack 0
   859  000300                     _g_rx_buffer:
   860                           	opt stack 0
   861  000300                     	ds	207
   862                           tblptru	equ	0xFF8
   863                           postinc0	equ	0xFEE
   864                           wreg	equ	0xFE8
   865                           
   866                           	psect	bssBANK4
   867  000400                     __pbssBANK4:
   868                           	opt stack 0
   869  000400                     _pd_detector:
   870                           	opt stack 0
   871  000400                     	ds	149
   872                           tblptru	equ	0xFF8
   873                           postinc0	equ	0xFEE
   874                           wreg	equ	0xFE8
   875                           
   876                           	psect	cstackCOMRAM
   877  000048                     __pcstackCOMRAM:
   878                           	opt stack 0
   879  000048                     ?_delay_ms:
   880                           	opt stack 0
   881  000048                     ??_scheduler_event_clear:
   882  000048                     ?_rd_buffer_init:
   883                           	opt stack 0
   884  000048                     sysclk_setup_intosc@frequency:
   885                           	opt stack 0
   886  000048                     this_get_next@found:
   887                           	opt stack 0
   888  000048                     delay_ms@delay:
   889                           	opt stack 0
   890  000048                     rd_buffer_init@pbuffer:
   891                           	opt stack 0
   892  000048                     this_execute_event@pfunc:
   893                           	opt stack 0
   894                           
   895                           ; 2 bytes @ 0x0
   896  000048                     	ds	1
   897  000049                     this_get_next@result_event:
   898                           	opt stack 0
   899                           
   900                           ; 1 bytes @ 0x1
   901  000049                     	ds	1
   902  00004A                     this_get_next@mask:
   903                           	opt stack 0
   904  00004A                     scheduler_event_clear@event_number:
   905                           	opt stack 0
   906  00004A                     this_execute_event@event_number:
   907                           	opt stack 0
   908  00004A                     rd_buffer_init@size:
   909                           	opt stack 0
   910                           
   911                           ; 2 bytes @ 0x2
   912  00004A                     	ds	1
   913  00004B                     this_get_next@event_index:
   914                           	opt stack 0
   915                           
   916                           ; 1 bytes @ 0x3
   917  00004B                     	ds	1
   918  00004C                     rd_buffer_init@stream:
   919                           	opt stack 0
   920  00004C                     scheduler_process@next_event_number:
   921                           	opt stack 0
   922                           
   923                           ; 1 bytes @ 0x4
   924  00004C                     	ds	1
   925  00004D                     ??_rd_buffer_init:
   926                           
   927                           ; 0 bytes @ 0x5
   928  00004D                     	ds	3
   929  000050                     
   930                           ; 0 bytes @ 0x8
   931  000050                     	ds	1
   932  000051                     ??_main:
   933                           
   934                           ; 0 bytes @ 0x9
   935  000051                     	ds	1
   936                           tblptru	equ	0xFF8
   937                           postinc0	equ	0xFEE
   938                           wreg	equ	0xFE8
   939                           
   940 ;;
   941 ;;Main: autosize = 0, tempsize = 1, incstack = 0, save=0
   942 ;;
   943 ;; *************** function _main *****************
   944 ;; Defined at:
   945 ;;		line 22 in file "src/main.c"
   946 ;; Parameters:    Size  Location     Type
   947 ;;		None
   948 ;; Auto vars:     Size  Location     Type
   949 ;;		None
   950 ;; Return value:  Size  Location     Type
   951 ;;                  2  845[COMRAM] int 
   952 ;; Registers used:
   953 ;;		wreg, fsr2l, fsr2h, status,2, status,0, pclat, tosl, prodl, prodh, cstack
   954 ;; Tracked objects:
   955 ;;		On entry : 0/0
   956 ;;		On exit  : 0/0
   957 ;;		Unchanged: 0/0
   958 ;; Data sizes:     COMRAM   BANK0   BANK1   BANK2   BANK3   BANK4   BANK5
   959 ;;      Params:         0       0       0       0       0       0       0
   960 ;;      Locals:         0       0       0       0       0       0       0
   961 ;;      Temps:          1       0       0       0       0       0       0
   962 ;;      Totals:         1       0       0       0       0       0       0
   963 ;;Total ram usage:        1 bytes
   964 ;; Hardware stack levels required when called:    5
   965 ;; This function calls:
   966 ;;		_startup
   967 ;;		_delay_ms
   968 ;;		_scheduler_process
   969 ;; This function is called by:
   970 ;;		Startup code after reset
   971 ;; This function uses a non-reentrant model
   972 ;;
   973                           
   974                           	psect	text0
   975  0001F2                     __ptext0:
   976                           	opt stack 0
   977  0001F2                     _main:
   978                           	opt stack 26
   979                           
   980                           ;main.c: 24: startup();
   981                           
   982                           ; BSR set to: 3
   983  0001F2  ECE4  F000         	call	_startup	;wreg free
   984                           
   985                           ; BSR set to: 3
   986                           ;main.c: 29: LATDbits.LATD7=1;
   987  0001F6  8E8C               	bsf	3980,7,c	;volatile
   988                           
   989                           ; BSR set to: 3
   990                           ;main.c: 30: LATDbits.LATD6=1;
   991  0001F8  8C8C               	bsf	3980,6,c	;volatile
   992  0001FA                     l846:
   993  0001FA  D7FF               	goto	l846
   994  0001FC                     l2093:
   995                           
   996                           ; BSR set to: 3
   997                           ;main.c: 33: {
   998                           ;main.c: 35: delay_ms(1000);
   999  0001FC  0E03               	movlw	3
  1000  0001FE  6E49               	movwf	?_delay_ms+1,c
  1001  000200  0EE8               	movlw	232
  1002  000202  6E48               	movwf	?_delay_ms,c
  1003  000204  EC1B  F001         	call	_delay_ms	;wreg free
  1004                           
  1005                           ; BSR set to: 3
  1006  000208  ECE4  F000         	call	_startup	;wreg free
  1007  00020C  6E51               	movwf	??_main& (0+255),c
  1008  00020E  0451               	decf	??_main,w,c
  1009  000210  E1F5               	bnz	l2093
  1010  000212                     l2097:
  1011                           
  1012                           ;main.c: 38: {
  1013                           ;main.c: 39: scheduler_process();
  1014  000212  EC0D  F001         	call	_scheduler_process	;wreg free
  1015  000216  0004               	clrwdt		;# 
  1016  000218  D7FC               	goto	l2097
  1017                           tblptru	equ	0xFF8
  1018                           postinc0	equ	0xFEE
  1019                           wreg	equ	0xFE8
  1020                           
  1021 ;; *************** function _delay_ms *****************
  1022 ;; Defined at:
  1023 ;;		line 28 in file "src/drivers/delay.c"
  1024 ;; Parameters:    Size  Location     Type
  1025 ;;  delay           2    0[COMRAM] unsigned int 
  1026 ;; Auto vars:     Size  Location     Type
  1027 ;;		None
  1028 ;; Return value:  Size  Location     Type
  1029 ;;		None               void
  1030 ;; Registers used:
  1031 ;;		wreg, status,2, status,0
  1032 ;; Tracked objects:
  1033 ;;		On entry : 0/3
  1034 ;;		On exit  : F/3
  1035 ;;		Unchanged: FFFFFFF0/0
  1036 ;; Data sizes:     COMRAM   BANK0   BANK1   BANK2   BANK3   BANK4   BANK5
  1037 ;;      Params:         2       0       0       0       0       0       0
  1038 ;;      Locals:         0       0       0       0       0       0       0
  1039 ;;      Temps:          0       0       0       0       0       0       0
  1040 ;;      Totals:         2       0       0       0       0       0       0
  1041 ;;Total ram usage:        2 bytes
  1042 ;; Hardware stack levels used:    1
  1043 ;; Hardware stack levels required when called:    2
  1044 ;; This function calls:
  1045 ;;		Nothing
  1046 ;; This function is called by:
  1047 ;;		_main
  1048 ;; This function uses a non-reentrant model
  1049 ;;
  1050                           
  1051                           	psect	text1
  1052  000236                     __ptext1:
  1053                           	opt stack 0
  1054  000236                     __end_of_main:
  1055                           	opt stack 0
  1056  000236                     _delay_ms:
  1057                           	opt stack 28
  1058                           
  1059                           ;delay.c: 29: this_delay_timer_ms = delay;
  1060  000236  C048  F041         	movff	delay_ms@delay,_this_delay_timer_ms	;volatile
  1061  00023A  C049  F042         	movff	delay_ms@delay+1,_this_delay_timer_ms+1	;volatile
  1062  00023E                     l1609:
  1063                           
  1064                           ; BSR set to: 3
  1065  00023E  5042               	movf	_this_delay_timer_ms+1,w,c	;volatile
  1066  000240  1041               	iorwf	_this_delay_timer_ms,w,c	;volatile
  1067  000242  B4D8               	btfsc	status,2,c
  1068  000244  0012               	return	
  1069  000246  D7FB               	goto	l1609
  1070  000248                     __end_of_delay_ms:
  1071                           	opt stack 0
  1072                           tblptru	equ	0xFF8
  1073                           postinc0	equ	0xFEE
  1074                           wreg	equ	0xFE8
  1075                           status	equ	0xFD8
  1076                           
  1077 ;; *************** function _scheduler_process *****************
  1078 ;; Defined at:
  1079 ;;		line 187 in file "src/modules/scheduler.c"
  1080 ;; Parameters:    Size  Location     Type
  1081 ;;		None
  1082 ;; Auto vars:     Size  Location     Type
  1083 ;;  next_event_n    1    4[COMRAM] unsigned char 
  1084 ;; Return value:  Size  Location     Type
  1085 ;;		None               void
  1086 ;; Registers used:
  1087 ;;		wreg, fsr2l, fsr2h, status,2, status,0, pclat, tosl, prodl, prodh, cstack
  1088 ;; Tracked objects:
  1089 ;;		On entry : 0/3
  1090 ;;		On exit  : 0/3
  1091 ;;		Unchanged: FFFFFFFF/0
  1092 ;; Data sizes:     COMRAM   BANK0   BANK1   BANK2   BANK3   BANK4   BANK5
  1093 ;;      Params:         0       0       0       0       0       0       0
  1094 ;;      Locals:         1       0       0       0       0       0       0
  1095 ;;      Temps:          0       0       0       0       0       0       0
  1096 ;;      Totals:         1       0       0       0       0       0       0
  1097 ;;Total ram usage:        1 bytes
  1098 ;; Hardware stack levels used:    1
  1099 ;; Hardware stack levels required when called:    3
  1100 ;; This function calls:
  1101 ;;		_scheduler_empty
  1102 ;;		_this_get_next
  1103 ;;		_this_execute_event
  1104 ;;		_scheduler_event_clear
  1105 ;; This function is called by:
  1106 ;;		_main
  1107 ;; This function uses a non-reentrant model
  1108 ;;
  1109                           
  1110                           	psect	text2
  1111  00021A                     __ptext2:
  1112                           	opt stack 0
  1113  00021A                     _scheduler_process:
  1114                           	opt stack 27
  1115                           
  1116                           ;scheduler.c: 188: UINT8 next_event_number;
  1117                           ;scheduler.c: 189: if (scheduler_empty() == FALSE) {
  1118                           
  1119                           ; BSR set to: 3
  1120  00021A  EC4D  F001         	call	_scheduler_empty	;wreg free
  1121  00021E  0900               	iorlw	0
  1122  000220  A4D8               	btfss	status,2,c
  1123  000222  0012               	return	
  1124                           
  1125                           ;scheduler.c: 190: next_event_number = this_get_next();
  1126  000224  EC16  F000         	call	_this_get_next	;wreg free
  1127  000228  6E4C               	movwf	scheduler_process@next_event_number,c
  1128                           
  1129                           ;scheduler.c: 191: this_execute_event(next_event_number);
  1130  00022A  504C               	movf	scheduler_process@next_event_number,w,c
  1131  00022C  EC9D  F000         	call	_this_execute_event
  1132                           
  1133                           ;scheduler.c: 192: scheduler_event_clear(next_event_number);
  1134  000230  504C               	movf	scheduler_process@next_event_number,w,c
  1135  000232  EFC2  F000         	goto	_scheduler_event_clear
  1136  000236                     __end_of_scheduler_process:
  1137                           	opt stack 0
  1138                           tblptru	equ	0xFF8
  1139                           postinc0	equ	0xFEE
  1140                           wreg	equ	0xFE8
  1141                           status	equ	0xFD8
  1142                           
  1143 ;; *************** function _this_get_next *****************
  1144 ;; Defined at:
  1145 ;;		line 62 in file "src/modules/scheduler.c"
  1146 ;; Parameters:    Size  Location     Type
  1147 ;;		None
  1148 ;; Auto vars:     Size  Location     Type
  1149 ;;  event_index     1    3[COMRAM] unsigned char 
  1150 ;;  mask            1    2[COMRAM] unsigned char 
  1151 ;;  result_event    1    1[COMRAM] unsigned char 
  1152 ;;  found           1    0[COMRAM] unsigned char 
  1153 ;; Return value:  Size  Location     Type
  1154 ;;                  1    wreg      unsigned char 
  1155 ;; Registers used:
  1156 ;;		wreg, fsr2l, fsr2h, status,2, status,0, prodl, prodh
  1157 ;; Tracked objects:
  1158 ;;		On entry : 0/3
  1159 ;;		On exit  : 0/3
  1160 ;;		Unchanged: FFFFFFFF/0
  1161 ;; Data sizes:     COMRAM   BANK0   BANK1   BANK2   BANK3   BANK4   BANK5
  1162 ;;      Params:         0       0       0       0       0       0       0
  1163 ;;      Locals:         4       0       0       0       0       0       0
  1164 ;;      Temps:          0       0       0       0       0       0       0
  1165 ;;      Totals:         4       0       0       0       0       0       0
  1166 ;;Total ram usage:        4 bytes
  1167 ;; Hardware stack levels used:    1
  1168 ;; Hardware stack levels required when called:    2
  1169 ;; This function calls:
  1170 ;;		Nothing
  1171 ;; This function is called by:
  1172 ;;		_scheduler_process
  1173 ;; This function uses a non-reentrant model
  1174 ;;
  1175                           
  1176                           	psect	text3
  1177  00002C                     __ptext3:
  1178                           	opt stack 0
  1179  00002C                     _this_get_next:
  1180                           	opt stack 27
  1181                           
  1182                           ;scheduler.c: 63: UINT8 event_index;
  1183                           ;scheduler.c: 64: UINT8 result_event = 0;
  1184  00002C  6A49               	clrf	this_get_next@result_event,c
  1185                           
  1186                           ;scheduler.c: 65: CHAR found;
  1187                           ;scheduler.c: 66: Event_t mask = (Event_t)1u;
  1188  00002E  0E01               	movlw	1
  1189  000030  6E4A               	movwf	this_get_next@mask,c
  1190                           
  1191                           ;scheduler.c: 68: for(found = FALSE,event_index=0; event_index < (8*sizeof(Event_t)); ev
      +                          ent_index++) {
  1192  000032  6A48               	clrf	this_get_next@found,c
  1193  000034  6A4B               	clrf	this_get_next@event_index,c
  1194  000036                     l1659:
  1195                           
  1196                           ;scheduler.c: 70: if( (event_list[event_index].timeout == 0) && ((mask & eventPool) == m
      +                          ask) ) {
  1197  000036  504B               	movf	this_get_next@event_index,w,c
  1198  000038  0D07               	mullw	7
  1199  00003A  50F3               	movf	prodl,w,c
  1200  00003C  0F02               	addlw	low (_event_list+1)
  1201  00003E  6ED9               	movwf	fsr2l,c
  1202  000040  6ADA               	clrf	fsr2h,c
  1203  000042  50DE               	movf	postinc2,w,c
  1204  000044  10DD               	iorwf	postdec2,w,c
  1205  000046  E11E               	bnz	l1673
  1206  000048  504A               	movf	this_get_next@mask,w,c
  1207  00004A  1444               	andwf	_eventPool,w,c	;volatile
  1208  00004C  184A               	xorwf	this_get_next@mask,w,c
  1209  00004E  E11A               	bnz	l1673
  1210                           
  1211                           ;scheduler.c: 71: if(found == FALSE) {
  1212  000050  6648               	tstfsz	this_get_next@found,c
  1213  000052  D005               	goto	l1669
  1214                           
  1215                           ;scheduler.c: 72: found = TRUE;
  1216  000054  0E01               	movlw	1
  1217  000056  6E48               	movwf	this_get_next@found,c
  1218                           
  1219                           ;scheduler.c: 73: result_event = event_index;
  1220  000058  C04B  F049         	movff	this_get_next@event_index,this_get_next@result_event
  1221                           
  1222                           ;scheduler.c: 74: }else{
  1223  00005C  D013               	goto	l1673
  1224  00005E                     l1669:
  1225                           
  1226                           ;scheduler.c: 76: event_list[event_index].missCount++;
  1227  00005E  504B               	movf	this_get_next@event_index,w,c
  1228  000060  0D07               	mullw	7
  1229  000062  50F3               	movf	prodl,w,c
  1230  000064  0F01               	addlw	low _event_list
  1231  000066  6ED9               	movwf	fsr2l,c
  1232  000068  6ADA               	clrf	fsr2h,c
  1233  00006A  2ADF               	incf	indf2,f,c
  1234                           
  1235                           ;scheduler.c: 78: if(event_list[event_index].missCount > event_index) {
  1236  00006C  504B               	movf	this_get_next@event_index,w,c
  1237  00006E  0D07               	mullw	7
  1238  000070  50F3               	movf	prodl,w,c
  1239  000072  0F01               	addlw	low _event_list
  1240  000074  6ED9               	movwf	fsr2l,c
  1241  000076  6ADA               	clrf	fsr2h,c
  1242  000078  50DF               	movf	indf2,w,c
  1243  00007A  604B               	cpfslt	this_get_next@event_index,c
  1244  00007C  D003               	goto	l1673
  1245                           
  1246                           ;scheduler.c: 79: result_event = event_index;
  1247  00007E  C04B  F049         	movff	this_get_next@event_index,this_get_next@result_event
  1248                           
  1249                           ;scheduler.c: 80: break;
  1250  000082  D006               	goto	l1677
  1251  000084                     l1673:
  1252                           
  1253                           ;scheduler.c: 81: }
  1254                           ;scheduler.c: 82: }
  1255                           ;scheduler.c: 83: }
  1256                           ;scheduler.c: 84: mask <<= 1;
  1257  000084  90D8               	bcf	status,0,c
  1258  000086  364A               	rlcf	this_get_next@mask,f,c
  1259  000088  2A4B               	incf	this_get_next@event_index,f,c
  1260  00008A  0E07               	movlw	7
  1261  00008C  644B               	cpfsgt	this_get_next@event_index,c
  1262  00008E  D7D3               	goto	l1659
  1263  000090                     l1677:
  1264                           
  1265                           ;scheduler.c: 85: }
  1266                           ;scheduler.c: 86: return result_event;
  1267  000090  5049               	movf	this_get_next@result_event,w,c
  1268  000092  0012               	return	
  1269  000094                     __end_of_this_get_next:
  1270                           	opt stack 0
  1271                           tblptru	equ	0xFF8
  1272                           prodl	equ	0xFF3
  1273                           postinc0	equ	0xFEE
  1274                           wreg	equ	0xFE8
  1275                           indf2	equ	0xFDF
  1276                           postinc2	equ	0xFDE
  1277                           postdec2	equ	0xFDD
  1278                           fsr2h	equ	0xFDA
  1279                           fsr2l	equ	0xFD9
  1280                           status	equ	0xFD8
  1281                           
  1282 ;; *************** function _scheduler_event_clear *****************
  1283 ;; Defined at:
  1284 ;;		line 119 in file "src/modules/scheduler.c"
  1285 ;; Parameters:    Size  Location     Type
  1286 ;;  event_number    1    wreg     unsigned char 
  1287 ;; Auto vars:     Size  Location     Type
  1288 ;;  event_number    1    2[COMRAM] unsigned char 
  1289 ;; Return value:  Size  Location     Type
  1290 ;;		None               void
  1291 ;; Registers used:
  1292 ;;		wreg, fsr2l, fsr2h, status,2, status,0, prodl, prodh
  1293 ;; Tracked objects:
  1294 ;;		On entry : 0/3
  1295 ;;		On exit  : 0/3
  1296 ;;		Unchanged: FFFFFFFF/0
  1297 ;; Data sizes:     COMRAM   BANK0   BANK1   BANK2   BANK3   BANK4   BANK5
  1298 ;;      Params:         0       0       0       0       0       0       0
  1299 ;;      Locals:         1       0       0       0       0       0       0
  1300 ;;      Temps:          2       0       0       0       0       0       0
  1301 ;;      Totals:         3       0       0       0       0       0       0
  1302 ;;Total ram usage:        3 bytes
  1303 ;; Hardware stack levels used:    1
  1304 ;; Hardware stack levels required when called:    2
  1305 ;; This function calls:
  1306 ;;		Nothing
  1307 ;; This function is called by:
  1308 ;;		_scheduler_process
  1309 ;; This function uses a non-reentrant model
  1310 ;;
  1311                           
  1312                           	psect	text4
  1313  000184                     __ptext4:
  1314                           	opt stack 0
  1315  000184                     _scheduler_event_clear:
  1316                           	opt stack 27
  1317                           
  1318                           ;scheduler_event_clear@event_number stored from wreg
  1319  000184  CFE8 F04A          	movff	wreg,scheduler_event_clear@event_number
  1320                           
  1321                           ;scheduler.c: 120: if(event_number <(8*sizeof(Event_t)) ){
  1322  000188  0E08               	movlw	8
  1323  00018A  604A               	cpfslt	scheduler_event_clear@event_number,c
  1324  00018C  0C08               	retlw	8
  1325                           
  1326                           ;scheduler.c: 121: eventPool &= ~(1<<event_number);
  1327  00018E  C04A  F048         	movff	scheduler_event_clear@event_number,??_scheduler_event_clear
  1328  000192  0E01               	movlw	1
  1329  000194  6E49               	movwf	(??_scheduler_event_clear+1)& (0+255),c
  1330  000196  2A48               	incf	??_scheduler_event_clear,f,c
  1331  000198  D002               	goto	u104
  1332  00019A                     u105:
  1333  00019A  90D8               	bcf	status,0,c
  1334  00019C  3649               	rlcf	??_scheduler_event_clear+1,f,c
  1335  00019E                     u104:
  1336  00019E  2E48               	decfsz	??_scheduler_event_clear,f,c
  1337  0001A0  D7FC               	goto	u105
  1338  0001A2  1C49               	comf	??_scheduler_event_clear+1,w,c
  1339  0001A4  1644               	andwf	_eventPool,f,c	;volatile
  1340                           
  1341                           ;scheduler.c: 122: event_list[event_number].pEventData = (0);
  1342  0001A6  504A               	movf	scheduler_event_clear@event_number,w,c
  1343  0001A8  0D07               	mullw	7
  1344  0001AA  50F3               	movf	prodl,w,c
  1345  0001AC  0F06               	addlw	low (_event_list+5)
  1346  0001AE  6ED9               	movwf	fsr2l,c
  1347  0001B0  6ADA               	clrf	fsr2h,c
  1348  0001B2  6ADE               	clrf	postinc2,c
  1349  0001B4  6ADD               	clrf	postdec2,c
  1350                           
  1351                           ;scheduler.c: 123: event_list[event_number].missCount = 0;
  1352  0001B6  504A               	movf	scheduler_event_clear@event_number,w,c
  1353  0001B8  0D07               	mullw	7
  1354  0001BA  50F3               	movf	prodl,w,c
  1355  0001BC  0F01               	addlw	low _event_list
  1356  0001BE  6ED9               	movwf	fsr2l,c
  1357  0001C0  6ADA               	clrf	fsr2h,c
  1358  0001C2  0E00               	movlw	0
  1359  0001C4  6EDF               	movwf	indf2,c
  1360  0001C6  0C00               	retlw	0
  1361  0001C8                     __end_of_scheduler_event_clear:
  1362                           	opt stack 0
  1363                           tblptru	equ	0xFF8
  1364                           prodl	equ	0xFF3
  1365                           postinc0	equ	0xFEE
  1366                           wreg	equ	0xFE8
  1367                           indf2	equ	0xFDF
  1368                           postinc2	equ	0xFDE
  1369                           postdec2	equ	0xFDD
  1370                           fsr2h	equ	0xFDA
  1371                           fsr2l	equ	0xFD9
  1372                           status	equ	0xFD8
  1373                           
  1374 ;; *************** function _scheduler_empty *****************
  1375 ;; Defined at:
  1376 ;;		line 137 in file "src/modules/scheduler.c"
  1377 ;; Parameters:    Size  Location     Type
  1378 ;;		None
  1379 ;; Auto vars:     Size  Location     Type
  1380 ;;		None
  1381 ;; Return value:  Size  Location     Type
  1382 ;;                  1    wreg      unsigned char 
  1383 ;; Registers used:
  1384 ;;		wreg, status,2
  1385 ;; Tracked objects:
  1386 ;;		On entry : 0/3
  1387 ;;		On exit  : 0/3
  1388 ;;		Unchanged: FFFFFFFF/0
  1389 ;; Data sizes:     COMRAM   BANK0   BANK1   BANK2   BANK3   BANK4   BANK5
  1390 ;;      Params:         0       0       0       0       0       0       0
  1391 ;;      Locals:         0       0       0       0       0       0       0
  1392 ;;      Temps:          0       0       0       0       0       0       0
  1393 ;;      Totals:         0       0       0       0       0       0       0
  1394 ;;Total ram usage:        0 bytes
  1395 ;; Hardware stack levels used:    1
  1396 ;; Hardware stack levels required when called:    2
  1397 ;; This function calls:
  1398 ;;		Nothing
  1399 ;; This function is called by:
  1400 ;;		_scheduler_process
  1401 ;; This function uses a non-reentrant model
  1402 ;;
  1403                           
  1404                           	psect	text5
  1405  00029A                     __ptext5:
  1406                           	opt stack 0
  1407  00029A                     _scheduler_empty:
  1408                           	opt stack 27
  1409                           
  1410                           ;scheduler.c: 138: return (CHAR)(eventPool == 0);
  1411  00029A  5044               	movf	_eventPool,w,c	;volatile
  1412  00029C  E101               	bnz	u110
  1413  00029E  0C01               	retlw	1
  1414  0002A0                     u110:
  1415  0002A0  0C00               	retlw	0
  1416  0002A2                     __end_of_scheduler_empty:
  1417                           	opt stack 0
  1418                           tblptru	equ	0xFF8
  1419                           prodl	equ	0xFF3
  1420                           postinc0	equ	0xFEE
  1421                           wreg	equ	0xFE8
  1422                           indf2	equ	0xFDF
  1423                           postinc2	equ	0xFDE
  1424                           postdec2	equ	0xFDD
  1425                           fsr2h	equ	0xFDA
  1426                           fsr2l	equ	0xFD9
  1427                           status	equ	0xFD8
  1428                           
  1429 ;; *************** function _this_execute_event *****************
  1430 ;; Defined at:
  1431 ;;		line 168 in file "src/modules/scheduler.c"
  1432 ;; Parameters:    Size  Location     Type
  1433 ;;  event_number    1    wreg     unsigned char 
  1434 ;; Auto vars:     Size  Location     Type
  1435 ;;  event_number    1    2[COMRAM] unsigned char 
  1436 ;;  pfunc           2    0[COMRAM] PTR FTN(unsigned char ,)
  1437 ;; Return value:  Size  Location     Type
  1438 ;;                  1    wreg      unsigned char 
  1439 ;; Registers used:
  1440 ;;		wreg, fsr2l, fsr2h, status,2, status,0, pclat, tosl, prodl, prodh, cstack
  1441 ;; Tracked objects:
  1442 ;;		On entry : 0/3
  1443 ;;		On exit  : 0/3
  1444 ;;		Unchanged: FFFFFFFF/0
  1445 ;; Data sizes:     COMRAM   BANK0   BANK1   BANK2   BANK3   BANK4   BANK5
  1446 ;;      Params:         0       0       0       0       0       0       0
  1447 ;;      Locals:         3       0       0       0       0       0       0
  1448 ;;      Temps:          0       0       0       0       0       0       0
  1449 ;;      Totals:         3       0       0       0       0       0       0
  1450 ;;Total ram usage:        3 bytes
  1451 ;; Hardware stack levels used:    1
  1452 ;; Hardware stack levels required when called:    2
  1453 ;; This function calls:
  1454 ;;		Nothing
  1455 ;; This function is called by:
  1456 ;;		_scheduler_process
  1457 ;; This function uses a non-reentrant model
  1458 ;;
  1459                           
  1460                           	psect	text6
  1461  00013A                     __ptext6:
  1462                           	opt stack 0
  1463  00013A                     _this_execute_event:
  1464                           	opt stack 27
  1465                           
  1466                           ;this_execute_event@event_number stored from wreg
  1467  00013A  CFE8 F04A          	movff	wreg,this_execute_event@event_number
  1468                           
  1469                           ;scheduler.c: 169: if(event_number < (8*sizeof(Event_t)) && event_list[event_number].pEv
      +                          entFunc != (0)){
  1470  00013E  0E08               	movlw	8
  1471  000140  604A               	cpfslt	this_execute_event@event_number,c
  1472  000142  0C08               	retlw	8
  1473  000144  504A               	movf	this_execute_event@event_number,w,c
  1474  000146  0D07               	mullw	7
  1475  000148  50F3               	movf	prodl,w,c
  1476  00014A  0F04               	addlw	low (_event_list+3)
  1477  00014C  6ED9               	movwf	fsr2l,c
  1478  00014E  6ADA               	clrf	fsr2h,c
  1479  000150  50DE               	movf	postinc2,w,c
  1480  000152  10DD               	iorwf	postdec2,w,c
  1481  000154  B4D8               	btfsc	status,2,c
  1482  000156  0012               	return	
  1483                           
  1484                           ;scheduler.c: 170: EventFunctionPtr_t pfunc = event_list[event_number].pEventFunc;
  1485  000158  504A               	movf	this_execute_event@event_number,w,c
  1486  00015A  0D07               	mullw	7
  1487  00015C  50F3               	movf	prodl,w,c
  1488  00015E  0F04               	addlw	low (_event_list+3)
  1489  000160  6ED9               	movwf	fsr2l,c
  1490  000162  6ADA               	clrf	fsr2h,c
  1491  000164  CFDE F048          	movff	postinc2,this_execute_event@pfunc
  1492  000168  CFDD F049          	movff	postdec2,this_execute_event@pfunc+1
  1493                           
  1494                           ;scheduler.c: 171: (pfunc)(event_number);
  1495  00016C  C04A  F000         	movff	this_execute_event@event_number,0
  1496  000170  0005               	push	
  1497  000172  6EFA               	movwf	pclath,c
  1498  000174  5048               	movf	this_execute_event@pfunc,w,c
  1499  000176  6EFD               	movwf	tosl,c
  1500  000178  5049               	movf	this_execute_event@pfunc+1,w,c
  1501  00017A  6EFE               	movwf	tosh,c
  1502  00017C  50F8               	movf	tblptru,w,c
  1503  00017E  6EFF               	movwf	tosu,c
  1504  000180  50FA               	movf	pclath,w,c
  1505  000182  0012               	return		;indir
  1506  000184                     __end_of_this_execute_event:
  1507                           	opt stack 0
  1508                           tosu	equ	0xFFF
  1509                           tosh	equ	0xFFE
  1510                           tosl	equ	0xFFD
  1511                           pclath	equ	0xFFA
  1512                           tblptru	equ	0xFF8
  1513                           prodl	equ	0xFF3
  1514                           postinc0	equ	0xFEE
  1515                           wreg	equ	0xFE8
  1516                           indf2	equ	0xFDF
  1517                           postinc2	equ	0xFDE
  1518                           postdec2	equ	0xFDD
  1519                           fsr2h	equ	0xFDA
  1520                           fsr2l	equ	0xFD9
  1521                           status	equ	0xFD8
  1522                           
  1523 ;; *************** function _startup *****************
  1524 ;; Defined at:
  1525 ;;		line 14 in file "src/startup/startup.c"
  1526 ;; Parameters:    Size  Location     Type
  1527 ;;		None
  1528 ;; Auto vars:     Size  Location     Type
  1529 ;;  result          1    0        enum E3388
  1530 ;; Return value:  Size  Location     Type
  1531 ;;                  1    wreg      enum E3388
  1532 ;; Registers used:
  1533 ;;		wreg, fsr2l, fsr2h, status,2, status,0, cstack
  1534 ;; Tracked objects:
  1535 ;;		On entry : 0/0
  1536 ;;		On exit  : F/3
  1537 ;;		Unchanged: FFFFFFF0/0
  1538 ;; Data sizes:     COMRAM   BANK0   BANK1   BANK2   BANK3   BANK4   BANK5
  1539 ;;      Params:         0       0       0       0       0       0       0
  1540 ;;      Locals:         1       0       0       0       0       0       0
  1541 ;;      Temps:          0       0       0       0       0       0       0
  1542 ;;      Totals:         1       0       0       0       0       0       0
  1543 ;;Total ram usage:        1 bytes
  1544 ;; Hardware stack levels used:    1
  1545 ;; Hardware stack levels required when called:    4
  1546 ;; This function calls:
  1547 ;;		_gpio_init
  1548 ;;		_sysclk_init
  1549 ;;		_adc_init
  1550 ;;		_uart_init
  1551 ;;		_rd_buffer_init
  1552 ;; This function is called by:
  1553 ;;		_main
  1554 ;; This function uses a non-reentrant model
  1555 ;;
  1556                           
  1557                           	psect	text7
  1558  0001C8                     __ptext7:
  1559                           	opt stack 0
  1560  0001C8                     _startup:
  1561                           	opt stack 26
  1562                           
  1563                           ;startup.c: 16: gpio_init();
  1564  0001C8  EC2D  F001         	call	_gpio_init	;wreg free
  1565                           
  1566                           ;startup.c: 17: sysclk_init();
  1567  0001CC  EC51  F001         	call	_sysclk_init	;wreg free
  1568                           
  1569                           ;startup.c: 18: adc_init();
  1570  0001D0  EC24  F001         	call	_adc_init	;wreg free
  1571                           
  1572                           ;startup.c: 19: uart_init();
  1573  0001D4  EC46  F001         	call	_uart_init	;wreg free
  1574                           
  1575                           ;startup.c: 22: rd_buffer_init(&g_rx_buffer, (200u) , FALSE);
  1576  0001D8  0103               	movlb	3	; () banked
  1577  0001DA  0E03               	movlw	high _g_rx_buffer
  1578  0001DC  6E49               	movwf	?_rd_buffer_init+1,c
  1579  0001DE  0E00               	movlw	low _g_rx_buffer
  1580  0001E0  6E48               	movwf	?_rd_buffer_init,c
  1581  0001E2  6A4B               	clrf	?_rd_buffer_init+3,c
  1582  0001E4  0EC8               	movlw	200
  1583  0001E6  6E4A               	movwf	?_rd_buffer_init+2,c
  1584  0001E8  0E00               	movlw	0
  1585  0001EA  6A4C               	clrf	?_rd_buffer_init+4,c
  1586  0001EC  EC4A  F000         	call	_rd_buffer_init	;wreg free
  1587                           
  1588                           ; BSR set to: 3
  1589                           
  1590                           ; BSR set to: 3
  1591                           ;startup.c: 28: }while(0);
  1592                           ;startup.c: 30: return result;
  1593  0001F0  0C00               	retlw	0
  1594  0001F2                     __end_of_startup:
  1595                           	opt stack 0
  1596                           tosu	equ	0xFFF
  1597                           tosh	equ	0xFFE
  1598                           tosl	equ	0xFFD
  1599                           pclath	equ	0xFFA
  1600                           tblptru	equ	0xFF8
  1601                           prodl	equ	0xFF3
  1602                           postinc0	equ	0xFEE
  1603                           wreg	equ	0xFE8
  1604                           indf2	equ	0xFDF
  1605                           postinc2	equ	0xFDE
  1606                           postdec2	equ	0xFDD
  1607                           fsr2h	equ	0xFDA
  1608                           fsr2l	equ	0xFD9
  1609                           status	equ	0xFD8
  1610                           
  1611 ;; *************** function _sysclk_init *****************
  1612 ;; Defined at:
  1613 ;;		line 7 in file "src/drivers/sysclk.c"
  1614 ;; Parameters:    Size  Location     Type
  1615 ;;		None
  1616 ;; Auto vars:     Size  Location     Type
  1617 ;;		None
  1618 ;; Return value:  Size  Location     Type
  1619 ;;		None               void
  1620 ;; Registers used:
  1621 ;;		wreg, status,2, status,0, cstack
  1622 ;; Tracked objects:
  1623 ;;		On entry : 0/0
  1624 ;;		On exit  : 0/0
  1625 ;;		Unchanged: FFFFFFFF/0
  1626 ;; Data sizes:     COMRAM   BANK0   BANK1   BANK2   BANK3   BANK4   BANK5
  1627 ;;      Params:         0       0       0       0       0       0       0
  1628 ;;      Locals:         0       0       0       0       0       0       0
  1629 ;;      Temps:          0       0       0       0       0       0       0
  1630 ;;      Totals:         0       0       0       0       0       0       0
  1631 ;;Total ram usage:        0 bytes
  1632 ;; Hardware stack levels used:    1
  1633 ;; Hardware stack levels required when called:    3
  1634 ;; This function calls:
  1635 ;;		_sysclk_setup_intosc
  1636 ;; This function is called by:
  1637 ;;		_startup
  1638 ;; This function uses a non-reentrant model
  1639 ;;
  1640                           
  1641                           	psect	text8
  1642  0002A2                     __ptext8:
  1643                           	opt stack 0
  1644  0002A2                     _sysclk_init:
  1645                           	opt stack 26
  1646                           
  1647                           ;sysclk.c: 8: sysclk_setup_intosc(INTOSC_4MHZ);
  1648                           
  1649                           ; BSR set to: 3
  1650  0002A2  0E05               	movlw	5
  1651  0002A4  EF36  F001         	goto	_sysclk_setup_intosc
  1652  0002A8                     __end_of_sysclk_init:
  1653                           	opt stack 0
  1654                           tosu	equ	0xFFF
  1655                           tosh	equ	0xFFE
  1656                           tosl	equ	0xFFD
  1657                           pclath	equ	0xFFA
  1658                           tblptru	equ	0xFF8
  1659                           prodl	equ	0xFF3
  1660                           postinc0	equ	0xFEE
  1661                           wreg	equ	0xFE8
  1662                           indf2	equ	0xFDF
  1663                           postinc2	equ	0xFDE
  1664                           postdec2	equ	0xFDD
  1665                           fsr2h	equ	0xFDA
  1666                           fsr2l	equ	0xFD9
  1667                           status	equ	0xFD8
  1668                           
  1669 ;; *************** function _sysclk_setup_intosc *****************
  1670 ;; Defined at:
  1671 ;;		line 12 in file "src/drivers/sysclk.c"
  1672 ;; Parameters:    Size  Location     Type
  1673 ;;  frequency       1    wreg     enum E1
  1674 ;; Auto vars:     Size  Location     Type
  1675 ;;  frequency       1    0[COMRAM] enum E1
  1676 ;; Return value:  Size  Location     Type
  1677 ;;		None               void
  1678 ;; Registers used:
  1679 ;;		wreg, status,2, status,0
  1680 ;; Tracked objects:
  1681 ;;		On entry : 0/0
  1682 ;;		On exit  : 0/0
  1683 ;;		Unchanged: FFFFFFFF/0
  1684 ;; Data sizes:     COMRAM   BANK0   BANK1   BANK2   BANK3   BANK4   BANK5
  1685 ;;      Params:         0       0       0       0       0       0       0
  1686 ;;      Locals:         1       0       0       0       0       0       0
  1687 ;;      Temps:          0       0       0       0       0       0       0
  1688 ;;      Totals:         1       0       0       0       0       0       0
  1689 ;;Total ram usage:        1 bytes
  1690 ;; Hardware stack levels used:    1
  1691 ;; Hardware stack levels required when called:    2
  1692 ;; This function calls:
  1693 ;;		Nothing
  1694 ;; This function is called by:
  1695 ;;		_sysclk_init
  1696 ;; This function uses a non-reentrant model
  1697 ;;
  1698                           
  1699                           	psect	text9
  1700  00026C                     __ptext9:
  1701                           	opt stack 0
  1702  00026C                     _sysclk_setup_intosc:
  1703                           	opt stack 26
  1704                           
  1705                           ;sysclk_setup_intosc@frequency stored from wreg
  1706  00026C  CFE8 F048          	movff	wreg,sysclk_setup_intosc@frequency
  1707                           
  1708                           ;sysclk.c: 13: OSCCON &= ~(0x07<<4);
  1709  000270  0E8F               	movlw	143
  1710  000272  16D3               	andwf	4051,f,c	;volatile
  1711                           
  1712                           ;sysclk.c: 14: OSCCON |= frequency<<4;
  1713  000274  3848               	swapf	sysclk_setup_intosc@frequency,w,c
  1714  000276  0BF0               	andlw	240
  1715  000278  12D3               	iorwf	4051,f,c	;volatile
  1716  00027A  0012               	return	
  1717  00027C                     __end_of_sysclk_setup_intosc:
  1718                           	opt stack 0
  1719                           tosu	equ	0xFFF
  1720                           tosh	equ	0xFFE
  1721                           tosl	equ	0xFFD
  1722                           pclath	equ	0xFFA
  1723                           tblptru	equ	0xFF8
  1724                           prodl	equ	0xFF3
  1725                           postinc0	equ	0xFEE
  1726                           wreg	equ	0xFE8
  1727                           indf2	equ	0xFDF
  1728                           postinc2	equ	0xFDE
  1729                           postdec2	equ	0xFDD
  1730                           fsr2h	equ	0xFDA
  1731                           fsr2l	equ	0xFD9
  1732                           status	equ	0xFD8
  1733                           
  1734 ;; *************** function _uart_init *****************
  1735 ;; Defined at:
  1736 ;;		line 5 in file "src/drivers/uart.c"
  1737 ;; Parameters:    Size  Location     Type
  1738 ;;		None
  1739 ;; Auto vars:     Size  Location     Type
  1740 ;;		None
  1741 ;; Return value:  Size  Location     Type
  1742 ;;		None               void
  1743 ;; Registers used:
  1744 ;;		wreg, status,2
  1745 ;; Tracked objects:
  1746 ;;		On entry : 0/0
  1747 ;;		On exit  : 0/0
  1748 ;;		Unchanged: FFFFFFFF/0
  1749 ;; Data sizes:     COMRAM   BANK0   BANK1   BANK2   BANK3   BANK4   BANK5
  1750 ;;      Params:         0       0       0       0       0       0       0
  1751 ;;      Locals:         0       0       0       0       0       0       0
  1752 ;;      Temps:          0       0       0       0       0       0       0
  1753 ;;      Totals:         0       0       0       0       0       0       0
  1754 ;;Total ram usage:        0 bytes
  1755 ;; Hardware stack levels used:    1
  1756 ;; Hardware stack levels required when called:    2
  1757 ;; This function calls:
  1758 ;;		Nothing
  1759 ;; This function is called by:
  1760 ;;		_startup
  1761 ;; This function uses a non-reentrant model
  1762 ;;
  1763                           
  1764                           	psect	text10
  1765  00028C                     __ptext10:
  1766                           	opt stack 0
  1767  00028C                     _uart_init:
  1768                           	opt stack 27
  1769                           
  1770                           ;uart.c: 6: TXSTA = 0b00100110;
  1771  00028C  0E26               	movlw	38
  1772  00028E  6EAC               	movwf	4012,c	;volatile
  1773                           
  1774                           ;uart.c: 7: RCSTA = 0b10010000;
  1775  000290  0E90               	movlw	144
  1776  000292  6EAB               	movwf	4011,c	;volatile
  1777                           
  1778                           ;uart.c: 8: BAUDCTL = 0b00000000;
  1779  000294  6AB8               	clrf	4024,c	;volatile
  1780                           
  1781                           ;uart.c: 9: BAUDCON = 0b00000000;
  1782  000296  6AB8               	clrf	4024,c	;volatile
  1783  000298  0012               	return	
  1784  00029A                     __end_of_uart_init:
  1785                           	opt stack 0
  1786                           tosu	equ	0xFFF
  1787                           tosh	equ	0xFFE
  1788                           tosl	equ	0xFFD
  1789                           pclath	equ	0xFFA
  1790                           tblptru	equ	0xFF8
  1791                           prodl	equ	0xFF3
  1792                           postinc0	equ	0xFEE
  1793                           wreg	equ	0xFE8
  1794                           indf2	equ	0xFDF
  1795                           postinc2	equ	0xFDE
  1796                           postdec2	equ	0xFDD
  1797                           fsr2h	equ	0xFDA
  1798                           fsr2l	equ	0xFD9
  1799                           status	equ	0xFD8
  1800                           
  1801 ;; *************** function _adc_init *****************
  1802 ;; Defined at:
  1803 ;;		line 5 in file "src/drivers/adc.c"
  1804 ;; Parameters:    Size  Location     Type
  1805 ;;		None
  1806 ;; Auto vars:     Size  Location     Type
  1807 ;;		None
  1808 ;; Return value:  Size  Location     Type
  1809 ;;		None               void
  1810 ;; Registers used:
  1811 ;;		wreg, status,2
  1812 ;; Tracked objects:
  1813 ;;		On entry : 0/0
  1814 ;;		On exit  : 0/0
  1815 ;;		Unchanged: FFFFFFFF/0
  1816 ;; Data sizes:     COMRAM   BANK0   BANK1   BANK2   BANK3   BANK4   BANK5
  1817 ;;      Params:         0       0       0       0       0       0       0
  1818 ;;      Locals:         0       0       0       0       0       0       0
  1819 ;;      Temps:          0       0       0       0       0       0       0
  1820 ;;      Totals:         0       0       0       0       0       0       0
  1821 ;;Total ram usage:        0 bytes
  1822 ;; Hardware stack levels used:    1
  1823 ;; Hardware stack levels required when called:    2
  1824 ;; This function calls:
  1825 ;;		Nothing
  1826 ;; This function is called by:
  1827 ;;		_startup
  1828 ;; This function uses a non-reentrant model
  1829 ;;
  1830                           
  1831                           	psect	text11
  1832  000248                     __ptext11:
  1833                           	opt stack 0
  1834  000248                     _adc_init:
  1835                           	opt stack 27
  1836                           
  1837                           ;adc.c: 6: ADCON0 = 0b00000001;
  1838  000248  0E01               	movlw	1
  1839  00024A  6EC2               	movwf	4034,c	;volatile
  1840                           
  1841                           ;adc.c: 7: ADCON1 = 0b00000000;
  1842  00024C  6AC1               	clrf	4033,c	;volatile
  1843                           
  1844                           ;adc.c: 8: ADCON2 = 0b10010000;
  1845  00024E  0E90               	movlw	144
  1846  000250  6EC0               	movwf	4032,c	;volatile
  1847                           
  1848                           ;adc.c: 9: ANSEL = 0b01100011;
  1849  000252  0E63               	movlw	99
  1850  000254  6E7E               	movwf	3966,c	;volatile
  1851                           
  1852                           ;adc.c: 10: ANSELH = 0;
  1853  000256  6A7F               	clrf	3967,c	;volatile
  1854  000258  0012               	return	
  1855  00025A                     __end_of_adc_init:
  1856                           	opt stack 0
  1857                           tosu	equ	0xFFF
  1858                           tosh	equ	0xFFE
  1859                           tosl	equ	0xFFD
  1860                           pclath	equ	0xFFA
  1861                           tblptru	equ	0xFF8
  1862                           prodl	equ	0xFF3
  1863                           postinc0	equ	0xFEE
  1864                           wreg	equ	0xFE8
  1865                           indf2	equ	0xFDF
  1866                           postinc2	equ	0xFDE
  1867                           postdec2	equ	0xFDD
  1868                           fsr2h	equ	0xFDA
  1869                           fsr2l	equ	0xFD9
  1870                           status	equ	0xFD8
  1871                           
  1872 ;; *************** function _rd_buffer_init *****************
  1873 ;; Defined at:
  1874 ;;		line 37 in file "src/modules/rd_buffer.c"
  1875 ;; Parameters:    Size  Location     Type
  1876 ;;  pbuffer         2    0[COMRAM] PTR struct .
  1877 ;;		 -> g_rx_buffer(207), 
  1878 ;;  size            2    2[COMRAM] int 
  1879 ;;  stream          1    4[COMRAM] unsigned char 
  1880 ;; Auto vars:     Size  Location     Type
  1881 ;;  result          1    0        unsigned char 
  1882 ;; Return value:  Size  Location     Type
  1883 ;;                  1    wreg      unsigned char 
  1884 ;; Registers used:
  1885 ;;		wreg, fsr2l, fsr2h, status,2, status,0
  1886 ;; Tracked objects:
  1887 ;;		On entry : F/3
  1888 ;;		On exit  : F/3
  1889 ;;		Unchanged: FFFFFFF0/0
  1890 ;; Data sizes:     COMRAM   BANK0   BANK1   BANK2   BANK3   BANK4   BANK5
  1891 ;;      Params:         5       0       0       0       0       0       0
  1892 ;;      Locals:         1       0       0       0       0       0       0
  1893 ;;      Temps:          2       0       0       0       0       0       0
  1894 ;;      Totals:         8       0       0       0       0       0       0
  1895 ;;Total ram usage:        8 bytes
  1896 ;; Hardware stack levels used:    1
  1897 ;; Hardware stack levels required when called:    2
  1898 ;; This function calls:
  1899 ;;		Nothing
  1900 ;; This function is called by:
  1901 ;;		_startup
  1902 ;; This function uses a non-reentrant model
  1903 ;;
  1904                           
  1905                           	psect	text12
  1906  000094                     __ptext12:
  1907                           	opt stack 0
  1908  000094                     _rd_buffer_init:
  1909                           	opt stack 27
  1910                           
  1911                           ; BSR set to: 3
  1912                           ;rd_buffer.c: 39: if(pbuffer != (0) ){
  1913                           
  1914                           ; BSR set to: 3
  1915  000094  5049               	movf	rd_buffer_init@pbuffer+1,w,c
  1916  000096  1048               	iorwf	rd_buffer_init@pbuffer,w,c
  1917  000098  B4D8               	btfsc	status,2,c
  1918  00009A  0012               	return	
  1919                           
  1920                           ; BSR set to: 3
  1921                           ;rd_buffer.c: 40: pbuffer->head.first = 0;
  1922  00009C  EE20 F002          	lfsr	2,2
  1923  0000A0  5048               	movf	rd_buffer_init@pbuffer,w,c
  1924  0000A2  26D9               	addwf	fsr2l,f,c
  1925  0000A4  5049               	movf	rd_buffer_init@pbuffer+1,w,c
  1926  0000A6  22DA               	addwfc	fsr2h,f,c
  1927  0000A8  6ADE               	clrf	postinc2,c
  1928  0000AA  6ADD               	clrf	postdec2,c
  1929                           
  1930                           ; BSR set to: 3
  1931                           ;rd_buffer.c: 41: pbuffer->head.last = 0;
  1932  0000AC  C048  FFD9         	movff	rd_buffer_init@pbuffer,fsr2l
  1933  0000B0  C049  FFDA         	movff	rd_buffer_init@pbuffer+1,fsr2h
  1934  0000B4  6ADE               	clrf	postinc2,c
  1935  0000B6  6ADD               	clrf	postdec2,c
  1936                           
  1937                           ; BSR set to: 3
  1938                           ;rd_buffer.c: 43: pbuffer->head.size = size+1;
  1939  0000B8  284A               	incf	rd_buffer_init@size,w,c
  1940  0000BA  6E4D               	movwf	??_rd_buffer_init& (0+255),c
  1941  0000BC  0E00               	movlw	0
  1942  0000BE  204B               	addwfc	rd_buffer_init@size+1,w,c
  1943  0000C0  6E4E               	movwf	(??_rd_buffer_init+1)& (0+255),c
  1944  0000C2  EE20 F004          	lfsr	2,4
  1945  0000C6  5048               	movf	rd_buffer_init@pbuffer,w,c
  1946  0000C8  26D9               	addwf	fsr2l,f,c
  1947  0000CA  5049               	movf	rd_buffer_init@pbuffer+1,w,c
  1948  0000CC  22DA               	addwfc	fsr2h,f,c
  1949  0000CE  C04D  FFDE         	movff	??_rd_buffer_init,postinc2
  1950  0000D2  C04E  FFDD         	movff	??_rd_buffer_init+1,postdec2
  1951                           
  1952                           ; BSR set to: 3
  1953                           ;rd_buffer.c: 44: pbuffer->head.stream = stream;
  1954  0000D6  EE20 F006          	lfsr	2,6
  1955  0000DA  5048               	movf	rd_buffer_init@pbuffer,w,c
  1956  0000DC  26D9               	addwf	fsr2l,f,c
  1957  0000DE  5049               	movf	rd_buffer_init@pbuffer+1,w,c
  1958  0000E0  22DA               	addwfc	fsr2h,f,c
  1959  0000E2  C04C  FFDF         	movff	rd_buffer_init@stream,indf2
  1960                           
  1961                           ; BSR set to: 3
  1962                           
  1963                           ; BSR set to: 3
  1964  0000E6  0012               	return	
  1965  0000E8                     __end_of_rd_buffer_init:
  1966                           	opt stack 0
  1967                           tosu	equ	0xFFF
  1968                           tosh	equ	0xFFE
  1969                           tosl	equ	0xFFD
  1970                           pclath	equ	0xFFA
  1971                           tblptru	equ	0xFF8
  1972                           prodl	equ	0xFF3
  1973                           postinc0	equ	0xFEE
  1974                           wreg	equ	0xFE8
  1975                           indf2	equ	0xFDF
  1976                           postinc2	equ	0xFDE
  1977                           postdec2	equ	0xFDD
  1978                           fsr2h	equ	0xFDA
  1979                           fsr2l	equ	0xFD9
  1980                           status	equ	0xFD8
  1981                           
  1982 ;; *************** function _gpio_init *****************
  1983 ;; Defined at:
  1984 ;;		line 4 in file "src/drivers/gpio.c"
  1985 ;; Parameters:    Size  Location     Type
  1986 ;;		None
  1987 ;; Auto vars:     Size  Location     Type
  1988 ;;		None
  1989 ;; Return value:  Size  Location     Type
  1990 ;;		None               void
  1991 ;; Registers used:
  1992 ;;		wreg, status,2
  1993 ;; Tracked objects:
  1994 ;;		On entry : 0/0
  1995 ;;		On exit  : 0/0
  1996 ;;		Unchanged: FFFFFFFF/0
  1997 ;; Data sizes:     COMRAM   BANK0   BANK1   BANK2   BANK3   BANK4   BANK5
  1998 ;;      Params:         0       0       0       0       0       0       0
  1999 ;;      Locals:         0       0       0       0       0       0       0
  2000 ;;      Temps:          0       0       0       0       0       0       0
  2001 ;;      Totals:         0       0       0       0       0       0       0
  2002 ;;Total ram usage:        0 bytes
  2003 ;; Hardware stack levels used:    1
  2004 ;; Hardware stack levels required when called:    2
  2005 ;; This function calls:
  2006 ;;		Nothing
  2007 ;; This function is called by:
  2008 ;;		_startup
  2009 ;; This function uses a non-reentrant model
  2010 ;;
  2011                           
  2012                           	psect	text13
  2013  00025A                     __ptext13:
  2014                           	opt stack 0
  2015  00025A                     _gpio_init:
  2016                           	opt stack 27
  2017                           
  2018                           ;gpio.c: 7: TRISA=0xff;
  2019                           
  2020                           ; BSR set to: 3
  2021  00025A  6892               	setf	3986,c	;volatile
  2022                           
  2023                           ;gpio.c: 8: TRISB=0xff;
  2024  00025C  6893               	setf	3987,c	;volatile
  2025                           
  2026                           ;gpio.c: 9: ANSELH=0;
  2027  00025E  6A7F               	clrf	3967,c	;volatile
  2028                           
  2029                           ;gpio.c: 10: TRISC=0xc1;
  2030  000260  0EC1               	movlw	193
  2031  000262  6E94               	movwf	3988,c	;volatile
  2032                           
  2033                           ;gpio.c: 11: TRISD=0x00;
  2034  000264  6A95               	clrf	3989,c	;volatile
  2035                           
  2036                           ;gpio.c: 12: LATC=0;
  2037  000266  6A8B               	clrf	3979,c	;volatile
  2038                           
  2039                           ;gpio.c: 13: LATD=0;
  2040  000268  6A8C               	clrf	3980,c	;volatile
  2041  00026A  0012               	return	
  2042  00026C                     __end_of_gpio_init:
  2043                           	opt stack 0
  2044                           tosu	equ	0xFFF
  2045                           tosh	equ	0xFFE
  2046                           tosl	equ	0xFFD
  2047                           pclath	equ	0xFFA
  2048                           tblptru	equ	0xFF8
  2049                           prodl	equ	0xFF3
  2050                           postinc0	equ	0xFEE
  2051                           wreg	equ	0xFE8
  2052                           indf2	equ	0xFDF
  2053                           postinc2	equ	0xFDE
  2054                           postdec2	equ	0xFDD
  2055                           fsr2h	equ	0xFDA
  2056                           fsr2l	equ	0xFD9
  2057                           status	equ	0xFD8
  2058                           
  2059 ;; *************** function _isr_high *****************
  2060 ;; Defined at:
  2061 ;;		line 8 in file "src/interrupts.c"
  2062 ;; Parameters:    Size  Location     Type
  2063 ;;		None
  2064 ;; Auto vars:     Size  Location     Type
  2065 ;;		None
  2066 ;; Return value:  Size  Location     Type
  2067 ;;		None               void
  2068 ;; Registers used:
  2069 ;;		wreg, status,2, status,0, cstack
  2070 ;; Tracked objects:
  2071 ;;		On entry : 0/0
  2072 ;;		On exit  : 0/0
  2073 ;;		Unchanged: FFFFFFFF/0
  2074 ;; Data sizes:     COMRAM   BANK0   BANK1   BANK2   BANK3   BANK4   BANK5
  2075 ;;      Params:         0       0       0       0       0       0       0
  2076 ;;      Locals:         0       0       0       0       0       0       0
  2077 ;;      Temps:          0       0       0       0       0       0       0
  2078 ;;      Totals:         0       0       0       0       0       0       0
  2079 ;;Total ram usage:        0 bytes
  2080 ;; Hardware stack levels used:    1
  2081 ;; Hardware stack levels required when called:    1
  2082 ;; This function calls:
  2083 ;;		_delay_interrupt_service
  2084 ;; This function is called by:
  2085 ;;		Interrupt level 2
  2086 ;; This function uses a non-reentrant model
  2087 ;;
  2088                           
  2089                           	psect	intcode
  2090  000008                     __pintcode:
  2091                           	opt stack 0
  2092  000008                     _isr_high:
  2093                           	opt stack 26
  2094  000008                     
  2095                           ;interrupts.c: 14: if (INTCONbits.TMR0IF && INTCONbits.TMR0IE)
  2096  000008  A4F2               	btfss	intcon,2,c	;volatile
  2097  00000A  D001               	goto	i2u17_41
  2098  00000C  D001               	goto	i2u17_40
  2099  00000E                     i2u17_41:
  2100  00000E  D00B               	goto	i2l835
  2101  000010                     i2u17_40:
  2102  000010  AAF2               	btfss	intcon,5,c	;volatile
  2103  000012  D001               	goto	i2u18_41
  2104  000014  D001               	goto	i2u18_40
  2105  000016                     i2u18_41:
  2106  000016  D007               	goto	i2l835
  2107  000018                     i2u18_40:
  2108  000018                     
  2109                           ;interrupts.c: 15: {
  2110                           ;interrupts.c: 16: TMR0 = -500;
  2111  000018  0EFE               	movlw	254
  2112  00001A  6ED7               	movwf	4055,c	;volatile
  2113  00001C  0E0C               	movlw	12
  2114  00001E  6ED6               	movwf	4054,c	;volatile
  2115  000020                     
  2116                           ;interrupts.c: 17: TMR0IF = 0;
  2117  000020  94F2               	bcf	intcon,2,c	;volatile
  2118  000022                     
  2119                           ;interrupts.c: 19: delay_interrupt_service();
  2120  000022  EC3E  F001         	call	_delay_interrupt_service	;wreg free
  2121  000026                     i2l835:
  2122  000026  0011               	retfie		f
  2123  000028                     __end_of_isr_high:
  2124                           	opt stack 0
  2125                           tosu	equ	0xFFF
  2126                           tosh	equ	0xFFE
  2127                           tosl	equ	0xFFD
  2128                           pclath	equ	0xFFA
  2129                           tblptru	equ	0xFF8
  2130                           prodl	equ	0xFF3
  2131                           intcon	equ	0xFF2
  2132                           postinc0	equ	0xFEE
  2133                           wreg	equ	0xFE8
  2134                           indf2	equ	0xFDF
  2135                           postinc2	equ	0xFDE
  2136                           postdec2	equ	0xFDD
  2137                           fsr2h	equ	0xFDA
  2138                           fsr2l	equ	0xFD9
  2139                           status	equ	0xFD8
  2140                           
  2141 ;; *************** function _delay_interrupt_service *****************
  2142 ;; Defined at:
  2143 ;;		line 70 in file "src/drivers/delay.c"
  2144 ;; Parameters:    Size  Location     Type
  2145 ;;		None
  2146 ;; Auto vars:     Size  Location     Type
  2147 ;;		None
  2148 ;; Return value:  Size  Location     Type
  2149 ;;		None               void
  2150 ;; Registers used:
  2151 ;;		wreg, status,2, status,0
  2152 ;; Tracked objects:
  2153 ;;		On entry : 0/0
  2154 ;;		On exit  : 0/0
  2155 ;;		Unchanged: FFFFFFFF/0
  2156 ;; Data sizes:     COMRAM   BANK0   BANK1   BANK2   BANK3   BANK4   BANK5
  2157 ;;      Params:         0       0       0       0       0       0       0
  2158 ;;      Locals:         0       0       0       0       0       0       0
  2159 ;;      Temps:          0       0       0       0       0       0       0
  2160 ;;      Totals:         0       0       0       0       0       0       0
  2161 ;;Total ram usage:        0 bytes
  2162 ;; Hardware stack levels used:    1
  2163 ;; This function calls:
  2164 ;;		Nothing
  2165 ;; This function is called by:
  2166 ;;		_isr_high
  2167 ;; This function uses a non-reentrant model
  2168 ;;
  2169                           
  2170                           	psect	text15
  2171  00027C                     __ptext15:
  2172                           	opt stack 0
  2173  00027C                     _delay_interrupt_service:
  2174                           	opt stack 26
  2175                           
  2176                           ;delay.c: 71: if(this_delay_timer_ms > 0u) {
  2177  00027C  5042               	movf	_this_delay_timer_ms+1,w,c	;volatile
  2178  00027E  1041               	iorwf	_this_delay_timer_ms,w,c	;volatile
  2179  000280  B4D8               	btfsc	status,2,c
  2180  000282  0012               	return	
  2181                           
  2182                           ;delay.c: 72: this_delay_timer_ms--;
  2183  000284  0641               	decf	_this_delay_timer_ms,f,c	;volatile
  2184  000286  A0D8               	btfss	status,0,c
  2185  000288  0642               	decf	_this_delay_timer_ms+1,f,c	;volatile
  2186  00028A  0012               	return	
  2187  00028C                     __end_of_delay_interrupt_service:
  2188                           	opt stack 0
  2189                           tosu	equ	0xFFF
  2190                           tosh	equ	0xFFE
  2191                           tosl	equ	0xFFD
  2192                           pclath	equ	0xFFA
  2193                           tblptru	equ	0xFF8
  2194                           prodl	equ	0xFF3
  2195                           intcon	equ	0xFF2
  2196                           postinc0	equ	0xFEE
  2197                           wreg	equ	0xFE8
  2198                           indf2	equ	0xFDF
  2199                           postinc2	equ	0xFDE
  2200                           postdec2	equ	0xFDD
  2201                           fsr2h	equ	0xFDA
  2202                           fsr2l	equ	0xFD9
  2203                           status	equ	0xFD8
  2204                           tosu	equ	0xFFF
  2205                           tosh	equ	0xFFE
  2206                           tosl	equ	0xFFD
  2207                           pclath	equ	0xFFA
  2208                           tblptru	equ	0xFF8
  2209                           prodl	equ	0xFF3
  2210                           intcon	equ	0xFF2
  2211                           postinc0	equ	0xFEE
  2212                           wreg	equ	0xFE8
  2213                           indf2	equ	0xFDF
  2214                           postinc2	equ	0xFDE
  2215                           postdec2	equ	0xFDD
  2216                           fsr2h	equ	0xFDA
  2217                           fsr2l	equ	0xFD9
  2218                           status	equ	0xFD8
  2219                           
  2220                           	psect	rparam
  2221  0000                     tosu	equ	0xFFF
  2222                           tosh	equ	0xFFE
  2223                           tosl	equ	0xFFD
  2224                           pclath	equ	0xFFA
  2225                           tblptru	equ	0xFF8
  2226                           prodl	equ	0xFF3
  2227                           intcon	equ	0xFF2
  2228                           postinc0	equ	0xFEE
  2229                           wreg	equ	0xFE8
  2230                           indf2	equ	0xFDF
  2231                           postinc2	equ	0xFDE
  2232                           postdec2	equ	0xFDD
  2233                           fsr2h	equ	0xFDA
  2234                           fsr2l	equ	0xFD9
  2235                           status	equ	0xFD8


Data Sizes:
    Strings     0
    Constant    633
    Data        0
    BSS         944
    Persistent  0
    Stack       0

Auto Spaces:
    Space          Size  Autos    Used
    COMRAM           95     10      81
    BANK0           160      0     136
    BANK1           256      0     254
    BANK2           256      0     127
    BANK3           256      0     207
    BANK4           256      0     149
    BANK5           256      0       0

Pointer List with Targets:

    sp__syntax_as_bytearray	PTR unsigned char  size(2) Largest target is 127
		 -> parameter_value(BANK1[127]), 

    sp__syntax_get_text	PTR const unsigned char  size(2) Largest target is 127
		 -> parameter_text(BANK1[127]), 

    this_execute_event@pfunc	PTR FTN(unsigned char ,)void  size(1) Largest target is 0

    S552$pEventData	PTR void  size(2) Largest target is 0
		 -> NULL(NULL[0]), 

    event_list.pEventData	PTR void  size(2) Largest target is 0
		 -> NULL(NULL[0]), 

    S552$pEventFunc	PTR FTN(unsigned char ,)void  size(1) Largest target is 0

    event_list.pEventFunc	PTR FTN(unsigned char ,)void  size(1) Largest target is 0

    S402$callback_function	PTR FTN()void  size(1) Largest target is 0

    timers_list.callback_function	PTR FTN()void  size(1) Largest target is 0

    rd_buffer_init@pbuffer	PTR struct . size(2) Largest target is 207
		 -> g_rx_buffer(BANK3[207]), 


Critical Paths under _main in COMRAM

    _main->_startup
    _scheduler_process->_this_get_next
    _startup->_rd_buffer_init
    _sysclk_init->_sysclk_setup_intosc

Critical Paths under _isr_high in COMRAM

    None.

Critical Paths under _main in BANK0

    None.

Critical Paths under _isr_high in BANK0

    None.

Critical Paths under _main in BANK1

    None.

Critical Paths under _isr_high in BANK1

    None.

Critical Paths under _main in BANK2

    None.

Critical Paths under _isr_high in BANK2

    None.

Critical Paths under _main in BANK3

    None.

Critical Paths under _isr_high in BANK3

    None.

Critical Paths under _main in BANK4

    None.

Critical Paths under _isr_high in BANK4

    None.

Critical Paths under _main in BANK5

    None.

Critical Paths under _isr_high in BANK5

    None.

Call Graph Tables:

 ---------------------------------------------------------------------------------
 (Depth) Function   	        Calls       Base Space   Used Autos Params    Refs
 ---------------------------------------------------------------------------------
 (0) _main                                                 1     1      0     567
                                              9 COMRAM     1     1      0
                            _startup
                           _delay_ms
                  _scheduler_process
 ---------------------------------------------------------------------------------
 (1) _delay_ms                                             2     0      2      15
                                              0 COMRAM     2     0      2
 ---------------------------------------------------------------------------------
 (1) _scheduler_process                                    1     1      0     345
                                              4 COMRAM     1     1      0
                    _scheduler_empty
                      _this_get_next
                 _this_execute_event
              _scheduler_event_clear
 ---------------------------------------------------------------------------------
 (2) _this_get_next                                        4     4      0     180
                                              0 COMRAM     4     4      0
 ---------------------------------------------------------------------------------
 (2) _scheduler_event_clear                                3     3      0      60
                                              0 COMRAM     3     3      0
 ---------------------------------------------------------------------------------
 (2) _scheduler_empty                                      0     0      0       0
 ---------------------------------------------------------------------------------
 (2) _this_execute_event                                   3     3      0      75
                                              0 COMRAM     3     3      0
 ---------------------------------------------------------------------------------
 (1) _startup                                              1     1      0     207
                                              8 COMRAM     1     1      0
                          _gpio_init
                        _sysclk_init
                           _adc_init
                          _uart_init
                     _rd_buffer_init
 ---------------------------------------------------------------------------------
 (2) _sysclk_init                                          0     0      0      22
                _sysclk_setup_intosc
 ---------------------------------------------------------------------------------
 (3) _sysclk_setup_intosc                                  1     1      0      22
                                              0 COMRAM     1     1      0
 ---------------------------------------------------------------------------------
 (2) _uart_init                                            0     0      0       0
 ---------------------------------------------------------------------------------
 (2) _adc_init                                             0     0      0       0
 ---------------------------------------------------------------------------------
 (2) _rd_buffer_init                                       8     3      5     162
                                              0 COMRAM     8     3      5
 ---------------------------------------------------------------------------------
 (2) _gpio_init                                            0     0      0       0
 ---------------------------------------------------------------------------------
 Estimated maximum stack depth 3
 ---------------------------------------------------------------------------------
 (Depth) Function   	        Calls       Base Space   Used Autos Params    Refs
 ---------------------------------------------------------------------------------
 (4) _isr_high                                             0     0      0       0
            _delay_interrupt_service
 ---------------------------------------------------------------------------------
 (5) _delay_interrupt_service                              0     0      0       0
 ---------------------------------------------------------------------------------
 Estimated maximum stack depth 5
 ---------------------------------------------------------------------------------

 Call Graph Graphs:

 _main (ROOT)
   _startup
     _gpio_init
     _sysclk_init
       _sysclk_setup_intosc
     _adc_init
     _uart_init
     _rd_buffer_init
   _delay_ms
   _scheduler_process
     _scheduler_empty
     _this_get_next
     _this_execute_event
     _scheduler_event_clear

 _isr_high (ROOT)
   _delay_interrupt_service

 Address spaces:
Name               Size   Autos  Total    Cost      Usage
BIGRAM             5FF      0       0      17        0.0%
EEDATA             100      0       0       0        0.0%
BITBANK5           100      0       0      16        0.0%
BANK5              100      0       0      14        0.0%
BITBANK4           100      0       0      12        0.0%
BANK4              100      0      95      13       58.2%
BITBANK3           100      0       0      10        0.0%
BANK3              100      0      CF      11       80.9%
BITBANK2           100      0       0       8        0.0%
BANK2              100      0      7F       9       49.6%
BITBANK1           100      0       0       6        0.0%
BANK1              100      0      FE       7       99.2%
BITBANK0            A0      0       0       4        0.0%
BANK0               A0      0      88       5       85.0%
BITCOMRAM           5F      0       0       0        0.0%
COMRAM              5F      A      51       1       85.3%
BITSFR               0      0       0      40        0.0%
SFR                  0      0       0      40        0.0%
STACK                0      0       7       2        0.0%
NULL                 0      0       0       0        0.0%
ABS                  0      0     3BA      15        0.0%
DATA                 0      0     3C1       3        0.0%
CODE                 0      0       0       0        0.0%


Microchip Technology PIC18 Macro Assembler V1.12 build 49521 
Symbol Table                                                                                   Thu Oct 08 16:39:34 2015

          ?_delay_interrupt_service 0048                        __CFG_CP0$OFF 000000  
                      __CFG_CP1$OFF 000000                        __CFG_CP2$OFF 000000  
                      __CFG_CP3$OFF 000000                     ??_this_get_next 0048  
                               l846 01FA                        __CFG_CPB$OFF 000000  
                               u110 02A0                                 u104 019E  
                               u105 019A                        __CFG_CPD$OFF 000000  
                      __CFG_BORV$27 000000                ??_this_execute_event 0048  
                               tosl 000FFD                                 wreg 000FE8  
                      __CFG_LVP$OFF 000000              __end_of_syx_param_list 7F96  
                              l2093 01FC                                l1609 023E  
                              l2097 0212                                l1673 0084  
                              l1659 0036                                l1677 0090  
                              l1669 005E                                _ADIF 007CF6  
                              _CREN 007D5C                                _LATC 000F8B  
                              _LATD 000F8C                                _RCIF 007CF5  
                              _TMR0 000FD6                                _TXIF 007CF4  
                      __CFG_PWRT$ON 000000                    ??_rd_buffer_init 004D  
                              _main 01F2                                fsr2h 000FDA  
                              indf2 000FDF                                fsr2l 000FD9  
                   _scheduler_empty 029A                                prodl 000FF3  
                              start 0028                       __CFG_IESO$OFF 000000  
                             ?_main 0048                               _ADRES 000FC3  
                             _ANSEL 000F7E                       __CFG_WDTEN$ON 000000  
                             i2l835 0026                               _RCREG 000FAE  
                             _RCSTA 000FAB                               _SPBRG 000FAF  
                             _TRISA 000F92                               _TRISB 000F93  
                             _TRISC 000F94                               _TRISD 000F95  
                             _TXREG 000FAD                               _TXSTA 000FAC  
                     __CFG_WRT0$OFF 000000                       __CFG_WRT1$OFF 000000  
                     __CFG_WRT2$OFF 000000                       __CFG_WRT3$OFF 000000  
                    __CFG_EBTR0$OFF 000000                      __CFG_FCMEN$OFF 000000  
                    __CFG_EBTR1$OFF 000000                      __CFG_EBTR2$OFF 000000  
                    __CFG_EBTR3$OFF 000000                       __CFG_WRTB$OFF 000000  
                     __CFG_WRTC$OFF 000000                       __CFG_WRTD$OFF 000000  
                    __CFG_EBTRB$OFF 000000                         _sysclk_init 02A2  
                    __CFG_BOREN$OFF 000000                               pclath 000FFA  
                             status 000FD8                     __end_of_startup 01F2  
                    __CFG_HFOFST$ON 000000                      __CFG_MCLRE$OFF 000000  
                   __initialization 00E8                        __end_of_main 0236  
                rd_buffer_init@size 004A                              ??_main 0051  
                     __activetblptr 000002                              _ADCON0 000FC2  
                            _ADCON1 000FC1                              _ADCON2 000FC0  
           __end_of_scheduler_empty 02A2                              _ANSELH 000F7F  
                            _GODONE 007E11                    __end_of_adc_init 025A  
                            i2l1751 0020                              i2l1753 0022  
                            i2l1745 0008                              i2l1747 0010  
                            i2l1749 0018                              _OSCCON 000FD3  
             rd_buffer_init@pbuffer 0048                              _TMR0IF 007F92  
                  __end_of_delay_ms 0248      __size_of_scheduler_event_clear 0044  
     __end_of_scheduler_event_clear 01C8                      __CFG_XINST$OFF 000000  
                    __CFG_STVREN$ON 000000         __end_of_sysclk_setup_intosc 027C  
                            clear_0 00EE                              clear_1 00FA  
                            clear_2 0106                              clear_3 0112  
                            clear_4 011E                              clear_5 012A  
                  __end_of_isr_high 0028   scheduler_event_clear@event_number 004A  
                      _syx_cmd_list 7F96                        __mediumconst 7D86  
                 _scheduler_process 021A                              tblptru 000FF8  
                         ??_startup 0050                  ?_scheduler_process 0048  
                        __accesstop 0060             __end_of__initialization 0130  
                   __CFG_PBADEN$OFF 000000                 ??_scheduler_process 004C  
scheduler_process@next_event_number 004C                      __pcstackCOMRAM 0048  
                      _cla_detector 00B0           __end_of_scheduler_process 0236  
  __size_of_delay_interrupt_service 0010             this_execute_event@pfunc 0048  
                   __CFG_LPT1OSC$ON 000000                    ?_scheduler_empty 0048  
                        __pbssBANK0 0060                          __pbssBANK1 0100  
                        __pbssBANK2 0200                          __pbssBANK3 0300  
                        __pbssBANK4 0400                  __size_of_gpio_init 0012  
                           _BAUDCON 000FB8                             _BAUDCTL 000FB8  
                         ?_adc_init 0048                  __size_of_uart_init 000E  
             __end_of_this_get_next 0094         __size_of_this_execute_event 004A  
                         ?_delay_ms 0048                             i2u17_40 0010  
                           i2u17_41 000E                             i2u18_40 0018  
                           i2u18_41 0016                     __CFG_WDTPS$1024 000000  
    this_execute_event@event_number 004A                        ?_sysclk_init 0048  
                         ?_isr_high 0048                             __Hparam 0000  
                           __Lparam 0000                          _event_list 0001  
                           __pcinit 00E8                             __ramtop 0600  
                        ??_adc_init 0048                             __ptext0 01F2  
                           __ptext1 0236                             __ptext2 021A  
                           __ptext3 002C                             __ptext4 0184  
                           __ptext5 029A                             __ptext6 013A  
                           __ptext7 01C8                             __ptext8 02A2  
                           __ptext9 026C                   __end_of_gpio_init 026C  
        __size_of_scheduler_process 001C                          ??_delay_ms 004A  
                           _startup 01C8                end_of_initialization 0130  
                     __Lmediumconst 7D86                          ??_isr_high 0048  
                 __end_of_uart_init 029A                           _RCSTAbits 000FAB  
                           postdec2 000FDD                             postinc0 000FEE  
                           postinc2 000FDE             __size_of_rd_buffer_init 0054  
                        _this_alarm 0046             _delay_interrupt_service 027C  
          this_get_next@event_index 004B               _scheduler_event_clear 0184  
                     delay_ms@delay 0048                 start_initialization 00E8  
      __size_of_sysclk_setup_intosc 0010                     _parameter_value 017F  
              __size_of_sysclk_init 0006        sysclk_setup_intosc@frequency 0048  
              rd_buffer_init@stream 004C           ??_delay_interrupt_service 0048  
                 __size_of_adc_init 0012                         __pbssCOMRAM 0001  
                 __size_of_delay_ms 0012                           _g_analog0 003B  
                         _g_analog1 003D                           _g_analog2 003F  
          __size_of_scheduler_empty 0008              ?_scheduler_event_clear 0048  
                 __CFG_CCP2MX$PORTC 000000                   __size_of_isr_high 0020  
                         __pintcode 0008                       __pmediumconst 7D86  
                    _rd_buffer_init 0094          __end_of_this_execute_event 0184  
                         _gpio_init 025A                           _eventPool 0044  
                          ?_startup 0048                         _g_rx_buffer 0300  
   __end_of_delay_interrupt_service 028C                            _LATDbits 000F8C  
               _this_delay_timer_ms 0041              __end_of_rd_buffer_init 00E8  
            __size_of_this_get_next 0068                           _uart_init 028C  
                        _ADCON0bits 000FC2                          ?_gpio_init 0048  
                          _i2c_buff 0045                      _parameter_text 0100  
                       _pd_detector 0400                            __Hrparam 0000  
                          _g_CONFIG 00CF                     ?_rd_buffer_init 0048  
               _sysclk_setup_intosc 026C                            __Lrparam 0000  
                        ?_uart_init 0048                            _g_STATUS 0039  
                 ??_scheduler_empty 0048                            _adc_init 0248  
              ?_sysclk_setup_intosc 0048                            _delay_ms 0236  
                     _this_get_next 002C                            __ptext10 028C  
                          __ptext11 0248                            __ptext12 0094  
                          __ptext13 025A                            __ptext15 027C  
                          _bitcount 0043                    __size_of_startup 002A  
                     __size_of_main 0044                            _isr_high 0008  
                          _this_buf 0200               ??_sysclk_setup_intosc 0048  
                        _INTCONbits 000FF2                      ?_this_get_next 0048  
                       ??_gpio_init 0048                       ??_sysclk_init 0049  
                          intlevel2 0000           this_get_next@result_event 0049  
           ??_scheduler_event_clear 0048                        _this_warning 0047  
                       ??_uart_init 0048                  this_get_next@found 0048  
                 this_get_next@mask 004A                         _timers_list 0060  
                _this_execute_event 013A                      _syx_param_list 7D86  
                 __CFG_FOSC$INTIO67 000000                __end_of_syx_cmd_list 7FFF  
               __end_of_sysclk_init 02A8                 ?_this_execute_event 0048  
